; ModuleID = 'softmax_v2_dynamic_float16_400001.cpp'
source_filename = "softmax_v2_dynamic_float16_400001.cpp"
target datalayout = "e-m:e-p:32:32-Fi8-i64:64-v128:64:128-a:0:32-n32-S64"
target triple = "armv6k-unknown-linux-gnueabihf"

@block_idx = dso_local local_unnamed_addr global i64 0, align 8

; Function Attrs: norecurse nounwind readnone
define dso_local i64 @_Z3minxx(i64 %0, i64 %1) local_unnamed_addr #0 {
  %3 = icmp slt i64 %0, %1
  %4 = select i1 %3, i64 %0, i64 %1
  ret i64 %4
}

; Function Attrs: norecurse nounwind readnone
define dso_local i64 @_Z3maxxx(i64 %0, i64 %1) local_unnamed_addr #0 {
  %3 = icmp sgt i64 %0, %1
  %4 = select i1 %3, i64 %0, i64 %1
  ret i64 %4
}

define dso_local void @softmax_v2_dynamic_float16_400000(float* noalias %0, float* noalias %1, i8* noalias nocapture readnone %2, i8* noalias %3) local_unnamed_addr #1 {
  %5 = alloca [8 x i64], align 8
  %6 = alloca [8 x i64], align 8
  %7 = alloca [8 x i64], align 8
  %8 = alloca [8 x i64], align 8
  %9 = alloca [8 x i64], align 8
  %10 = alloca [8 x i64], align 8
  %11 = alloca [8 x i64], align 8
  %12 = alloca [8 x i64], align 8
  %13 = alloca [8 x i64], align 8
  %14 = alloca [8 x i64], align 8
  %15 = alloca [8 x i64], align 8
  %16 = alloca [8 x i64], align 8
  %17 = alloca [8 x i64], align 8
  %18 = alloca [8 x i64], align 8
  %19 = alloca [8 x i64], align 8
  %20 = alloca [8 x i64], align 8
  %21 = alloca [8 x i64], align 8
  %22 = alloca [8 x i64], align 8
  %23 = alloca [8 x i64], align 8
  %24 = alloca [8 x i64], align 8
  %25 = alloca [8 x i64], align 8
  %26 = alloca [8 x i64], align 8
  %27 = alloca [8 x i64], align 8
  %28 = alloca [8 x i64], align 8
  %29 = alloca [8 x i64], align 8
  %30 = alloca [8 x i64], align 8
  %31 = alloca [8 x i64], align 8
  %32 = alloca [8 x i64], align 8
  %33 = alloca [8 x i64], align 8
  %34 = alloca [8 x i64], align 8
  %35 = alloca [8 x i64], align 8
  %36 = alloca [8 x i64], align 8
  %37 = alloca [8 x i64], align 8
  %38 = alloca [8 x i64], align 8
  %39 = alloca [8 x i64], align 8
  %40 = alloca [8 x i64], align 8
  %41 = alloca [8 x i64], align 8
  %42 = alloca [8 x i64], align 8
  %43 = alloca [8 x i64], align 8
  %44 = alloca [8 x i64], align 8
  %45 = alloca [8 x i64], align 8
  %46 = alloca [8 x i64], align 8
  %47 = alloca [8 x i64], align 8
  %48 = alloca [8 x i64], align 8
  %49 = alloca [8 x i64], align 8
  %50 = alloca [8 x i64], align 8
  %51 = alloca [8 x i64], align 8
  %52 = alloca [8 x i64], align 8
  tail call void @_Z11intrinsic_1yy(i64 -1, i64 -1)
  tail call void @_Z11intrinsic_6v()
  %53 = tail call i64 @_Z11intrinsic_2y(i64 0)
  %54 = trunc i64 %53 to i32
  %55 = inttoptr i32 %54 to i8*
  tail call void @_Z12intrinsic_15PvS_htttt(i8* %55, i8* %3, i8 zeroext 0, i16 zeroext 1, i16 zeroext 1, i16 zeroext 0, i16 zeroext 0)
  tail call void @_Z11intrinsic_76pipe_t(i32 6)
  %56 = inttoptr i32 %54 to i32*
  %57 = load i32, i32* %56, align 4, !tbaa !3
  %58 = getelementptr inbounds i8, i8* %55, i32 4
  %59 = bitcast i8* %58 to i32*
  %60 = load i32, i32* %59, align 4, !tbaa !3
  %61 = getelementptr inbounds i8, i8* %55, i32 8
  %62 = bitcast i8* %61 to i32*
  %63 = load i32, i32* %62, align 4, !tbaa !3
  %64 = getelementptr inbounds i8, i8* %55, i32 12
  %65 = bitcast i8* %64 to i32*
  %66 = load i32, i32* %65, align 4, !tbaa !3
  %67 = srem i32 %60, 64
  %68 = add nsw i32 %67, -1
  %69 = sext i32 %60 to i64
  %70 = add nsw i64 %69, 7
  %71 = ashr i64 %70, 3
  %72 = shl nsw i64 %71, 4
  %73 = sdiv i64 %71, 8
  %74 = and i64 %70, -64
  %75 = add nsw i32 %60, 7
  %76 = and i32 %75, 56
  %77 = zext i32 %76 to i64
  %78 = add nsw i64 %77, -1
  %79 = sext i32 %66 to i64
  %80 = freeze i64 %69
  %81 = sdiv i64 %80, 64
  %82 = icmp slt i64 %81, %79
  %83 = select i1 %82, i64 %79, i64 %81
  %84 = icmp sgt i64 %81, %79
  %85 = select i1 %84, i64 %79, i64 %81
  %86 = and i64 %70, -8
  %87 = add nsw i64 %69, -1
  %88 = sext i32 %57 to i64
  %89 = sext i32 %63 to i64
  %90 = add nsw i64 %89, -1
  %91 = sdiv i64 %90, %79
  %92 = add nsw i64 %91, 1
  %93 = mul nsw i64 %92, %79
  %94 = freeze i64 %70
  %95 = sdiv i64 %94, 8
  %96 = mul i64 %95, 8
  %97 = sub i64 %94, %96
  %98 = add nsw i64 %97, -7
  %99 = sdiv i64 %98, 8
  %100 = srem i64 %69, 16320
  %101 = sdiv i64 %100, 64
  %102 = sub nsw i64 %69, %100
  %103 = mul i64 %81, 64
  %104 = sub i64 %80, %103
  %105 = shl nsw i64 %81, 6
  %106 = icmp slt i64 %73, 128
  %107 = select i1 %106, i64 %73, i64 128
  %108 = ashr i32 %75, 3
  %109 = srem i32 %108, 8
  %110 = sext i32 %109 to i64
  %111 = shl nsw i64 %110, 4
  %112 = add nsw i64 %111, -65
  %113 = add nsw i64 %111, -1
  %114 = shl nsw i64 %73, 7
  %115 = sext i32 %108 to i64
  %116 = shl nsw i64 %115, 4
  %117 = add nsw i64 %116, -65
  %118 = add nsw i64 %116, -1
  %119 = freeze i64 %70
  %120 = sdiv i64 %119, 16320
  %121 = mul i64 %120, 16320
  %122 = sub i64 %119, %121
  %123 = ashr i64 %122, 6
  %124 = mul nsw i64 %120, 16320
  %125 = freeze i64 %83
  %126 = sdiv i64 %125, 255
  %127 = mul i64 %126, 255
  %128 = sub i64 %125, %127
  %129 = freeze i64 %79
  %130 = sdiv i64 %129, 255
  %131 = trunc i64 %71 to i32
  %132 = mul i32 %131, 2040
  %133 = zext i32 %132 to i64
  %134 = mul i64 %130, 255
  %135 = sub i64 %129, %134
  %136 = mul nsw i64 %130, %133
  %137 = sdiv i32 %66, 255
  %138 = mul nsw i32 %132, %137
  %139 = freeze i64 %79
  %140 = sdiv i64 %139, 240
  %141 = mul i64 %140, 240
  %142 = sub i64 %139, %141
  %143 = mul nsw i64 %140, 240
  %144 = srem i32 %66, 240
  %145 = trunc i32 %66 to i8
  %146 = mul i32 %131, 1920
  %147 = zext i32 %146 to i64
  %148 = mul nsw i64 %140, %147
  %149 = sdiv i64 7, %69
  %150 = mul nsw i64 %149, %69
  %151 = sub nsw i64 8, %150
  %152 = add nsw i64 %149, 1
  %153 = mul nsw i64 %152, %69
  %154 = shl nsw i64 %149, 3
  %155 = ashr i64 %69, 3
  %156 = sub nsw i64 %72, %155
  %157 = shl nsw i64 %69, 1
  %158 = sub nsw i64 %157, %155
  %159 = shl nsw i64 %155, 4
  %160 = shl nsw i64 %71, 5
  %161 = mul nsw i64 %71, 48
  %162 = shl nsw i64 %71, 6
  %163 = mul nsw i64 %71, 80
  %164 = mul nsw i64 %71, 96
  %165 = mul nsw i64 %71, 112
  %166 = shl nsw i64 %71, 7
  %167 = mul nsw i64 %71, 144
  %168 = mul nsw i64 %71, 160
  %169 = mul nsw i64 %71, 176
  %170 = mul nsw i64 %71, 192
  %171 = mul nsw i64 %71, 208
  %172 = mul nsw i64 %71, 224
  %173 = mul nsw i64 %71, 240
  %174 = add nsw i64 %71, -1
  %175 = shl nsw i64 %69, 5
  %176 = and i64 %175, 224
  %177 = mul nsw i64 %91, %79
  %178 = zext i32 %68 to i64
  %179 = icmp slt i32 %60, 8185
  %180 = select i1 %179, i64 0, i64 16
  %181 = select i1 %179, i64 128, i64 %73
  %182 = select i1 %179, i64 %72, i64 128
  %183 = select i1 %179, i64 16, i64 0
  %184 = select i1 %84, i64 64, i64 %86
  %185 = load i64, i64* @block_idx, align 8, !tbaa !7
  %186 = trunc i64 %185 to i32
  %187 = add nsw i32 %57, -1
  %188 = sdiv i32 %187, %63
  %189 = icmp slt i32 %188, %186
  br i1 %189, label %4722, label %190

190:                                              ; preds = %4
  %191 = add nsw i64 %88, -1
  %192 = sdiv i64 %191, %89
  %193 = tail call i64 @_Z11intrinsic_2y(i64 0)
  %194 = trunc i64 %193 to i32
  %195 = inttoptr i32 %194 to float*
  %196 = tail call i64 @_Z11intrinsic_2y(i64 84416)
  %197 = trunc i64 %196 to i32
  %198 = inttoptr i32 %197 to float*
  %199 = tail call i64 @_Z11intrinsic_2y(i64 168832)
  %200 = trunc i64 %199 to i32
  %201 = inttoptr i32 %200 to float*
  %202 = tail call i64 @_Z11intrinsic_2y(i64 169088)
  %203 = trunc i64 %202 to i32
  %204 = inttoptr i32 %203 to float*
  %205 = tail call i64 @_Z11intrinsic_2y(i64 168832)
  %206 = trunc i64 %205 to i32
  %207 = inttoptr i32 %206 to float*
  %208 = tail call i64 @_Z11intrinsic_2y(i64 253248)
  %209 = trunc i64 %208 to i32
  %210 = inttoptr i32 %209 to i16*
  %211 = tail call i64 @_Z11intrinsic_2y(i64 257376)
  %212 = trunc i64 %211 to i32
  %213 = inttoptr i32 %212 to float*
  %214 = tail call i64 @_Z11intrinsic_2y(i64 253280)
  %215 = tail call i64 @_Z11intrinsic_2y(i64 261472)
  %216 = trunc i64 %215 to i32
  %217 = inttoptr i32 %216 to float*
  %218 = tail call i64 @_Z11intrinsic_2y(i64 84416)
  %219 = trunc i64 %218 to i32
  %220 = inttoptr i32 %219 to i16*
  %221 = tail call i64 @_Z11intrinsic_2y(i64 168832)
  %222 = trunc i64 %221 to i32
  %223 = inttoptr i32 %222 to i16*
  %224 = tail call i64 @_Z11intrinsic_2y(i64 84416)
  %225 = trunc i64 %224 to i32
  %226 = inttoptr i32 %225 to float*
  %227 = load i64, i64* @block_idx, align 8, !tbaa !7
  %228 = shl i64 %227, 32
  %229 = ashr exact i64 %228, 32
  %230 = icmp sle i64 %229, %192
  %231 = icmp sgt i64 %93, 0
  %232 = and i1 %230, %231
  br i1 %232, label %233, label %4721

233:                                              ; preds = %190
  %234 = trunc i64 %214 to i32
  %235 = and i64 %69, 7
  %236 = icmp eq i64 %235, 0
  %237 = trunc i64 %95 to i16
  %238 = trunc i64 %99 to i16
  %239 = icmp slt i32 %66, 4096
  %240 = and i1 %236, %239
  %241 = icmp sgt i32 %66, 0
  %242 = trunc i32 %66 to i16
  %243 = icmp sgt i32 %60, 63
  %244 = icmp sgt i32 %60, 16383
  %245 = add nsw i64 %100, 63
  %246 = icmp ult i64 %245, 127
  %247 = icmp sgt i64 %104, 0
  %248 = shl i64 2, %178
  %249 = add i64 %248, -1
  %250 = icmp sgt i32 %60, 8
  %251 = getelementptr inbounds float, float* %201, i32 1
  %252 = bitcast float* %251 to i32*
  %253 = inttoptr i32 %203 to i32*
  %254 = getelementptr inbounds float, float* %201, i32 32
  %255 = getelementptr inbounds float, float* %201, i32 16
  %256 = getelementptr inbounds float, float* %201, i32 8
  %257 = inttoptr i32 %200 to i32*
  %258 = inttoptr i32 %234 to i16*
  %259 = inttoptr i32 %197 to i16*
  %260 = inttoptr i32 %212 to i16*
  %261 = getelementptr inbounds i16, i16* %260, i32 128
  %262 = getelementptr inbounds i16, i16* %258, i32 128
  %263 = bitcast [8 x i64]* %5 to i8*
  %264 = getelementptr inbounds [8 x i64], [8 x i64]* %5, i32 0, i32 0
  %265 = and i64 %214, 4294967295
  %266 = getelementptr inbounds [8 x i64], [8 x i64]* %5, i32 0, i32 1
  %267 = ptrtoint i16* %262 to i32
  %268 = zext i32 %267 to i64
  %269 = getelementptr inbounds [8 x i64], [8 x i64]* %5, i32 0, i32 2
  %270 = getelementptr inbounds i16, i16* %258, i32 256
  %271 = ptrtoint i16* %270 to i32
  %272 = zext i32 %271 to i64
  %273 = getelementptr inbounds [8 x i64], [8 x i64]* %5, i32 0, i32 3
  %274 = getelementptr inbounds i16, i16* %258, i32 384
  %275 = ptrtoint i16* %274 to i32
  %276 = zext i32 %275 to i64
  %277 = getelementptr inbounds [8 x i64], [8 x i64]* %5, i32 0, i32 4
  %278 = getelementptr inbounds i16, i16* %258, i32 512
  %279 = ptrtoint i16* %278 to i32
  %280 = zext i32 %279 to i64
  %281 = getelementptr inbounds [8 x i64], [8 x i64]* %5, i32 0, i32 5
  %282 = getelementptr inbounds i16, i16* %258, i32 640
  %283 = ptrtoint i16* %282 to i32
  %284 = zext i32 %283 to i64
  %285 = getelementptr inbounds [8 x i64], [8 x i64]* %5, i32 0, i32 6
  %286 = getelementptr inbounds i16, i16* %258, i32 768
  %287 = ptrtoint i16* %286 to i32
  %288 = zext i32 %287 to i64
  %289 = getelementptr inbounds [8 x i64], [8 x i64]* %5, i32 0, i32 7
  %290 = getelementptr inbounds i16, i16* %258, i32 896
  %291 = ptrtoint i16* %290 to i32
  %292 = zext i32 %291 to i64
  %293 = bitcast [8 x i64]* %6 to i8*
  %294 = getelementptr inbounds [8 x i64], [8 x i64]* %6, i32 0, i32 0
  %295 = getelementptr inbounds i16, i16* %258, i32 1024
  %296 = ptrtoint i16* %295 to i32
  %297 = zext i32 %296 to i64
  %298 = getelementptr inbounds [8 x i64], [8 x i64]* %6, i32 0, i32 1
  %299 = getelementptr inbounds i16, i16* %258, i32 1152
  %300 = ptrtoint i16* %299 to i32
  %301 = zext i32 %300 to i64
  %302 = getelementptr inbounds [8 x i64], [8 x i64]* %6, i32 0, i32 2
  %303 = getelementptr inbounds i16, i16* %258, i32 1280
  %304 = ptrtoint i16* %303 to i32
  %305 = zext i32 %304 to i64
  %306 = getelementptr inbounds [8 x i64], [8 x i64]* %6, i32 0, i32 3
  %307 = getelementptr inbounds i16, i16* %258, i32 1408
  %308 = ptrtoint i16* %307 to i32
  %309 = zext i32 %308 to i64
  %310 = getelementptr inbounds [8 x i64], [8 x i64]* %6, i32 0, i32 4
  %311 = getelementptr inbounds i16, i16* %258, i32 1536
  %312 = ptrtoint i16* %311 to i32
  %313 = zext i32 %312 to i64
  %314 = getelementptr inbounds [8 x i64], [8 x i64]* %6, i32 0, i32 5
  %315 = getelementptr inbounds i16, i16* %258, i32 1664
  %316 = ptrtoint i16* %315 to i32
  %317 = zext i32 %316 to i64
  %318 = getelementptr inbounds [8 x i64], [8 x i64]* %6, i32 0, i32 6
  %319 = getelementptr inbounds i16, i16* %258, i32 1792
  %320 = ptrtoint i16* %319 to i32
  %321 = zext i32 %320 to i64
  %322 = getelementptr inbounds [8 x i64], [8 x i64]* %6, i32 0, i32 7
  %323 = getelementptr inbounds i16, i16* %258, i32 1920
  %324 = ptrtoint i16* %323 to i32
  %325 = zext i32 %324 to i64
  %326 = bitcast [8 x i64]* %7 to i8*
  %327 = getelementptr inbounds [8 x i64], [8 x i64]* %7, i32 0, i32 0
  %328 = and i64 %211, 4294967295
  %329 = getelementptr inbounds [8 x i64], [8 x i64]* %7, i32 0, i32 1
  %330 = getelementptr inbounds i16, i16* %260, i32 16
  %331 = ptrtoint i16* %330 to i32
  %332 = zext i32 %331 to i64
  %333 = getelementptr inbounds [8 x i64], [8 x i64]* %7, i32 0, i32 2
  %334 = getelementptr inbounds i16, i16* %260, i32 256
  %335 = ptrtoint i16* %334 to i32
  %336 = zext i32 %335 to i64
  %337 = getelementptr inbounds [8 x i64], [8 x i64]* %7, i32 0, i32 3
  %338 = getelementptr inbounds i16, i16* %260, i32 272
  %339 = ptrtoint i16* %338 to i32
  %340 = zext i32 %339 to i64
  %341 = getelementptr inbounds [8 x i64], [8 x i64]* %7, i32 0, i32 4
  %342 = getelementptr inbounds i16, i16* %260, i32 512
  %343 = ptrtoint i16* %342 to i32
  %344 = zext i32 %343 to i64
  %345 = getelementptr inbounds [8 x i64], [8 x i64]* %7, i32 0, i32 5
  %346 = getelementptr inbounds i16, i16* %260, i32 528
  %347 = ptrtoint i16* %346 to i32
  %348 = zext i32 %347 to i64
  %349 = getelementptr inbounds [8 x i64], [8 x i64]* %7, i32 0, i32 6
  %350 = getelementptr inbounds i16, i16* %260, i32 768
  %351 = ptrtoint i16* %350 to i32
  %352 = zext i32 %351 to i64
  %353 = getelementptr inbounds [8 x i64], [8 x i64]* %7, i32 0, i32 7
  %354 = getelementptr inbounds i16, i16* %260, i32 784
  %355 = ptrtoint i16* %354 to i32
  %356 = zext i32 %355 to i64
  %357 = bitcast [8 x i64]* %8 to i8*
  %358 = getelementptr inbounds [8 x i64], [8 x i64]* %8, i32 0, i32 0
  %359 = getelementptr inbounds i16, i16* %260, i32 1024
  %360 = ptrtoint i16* %359 to i32
  %361 = zext i32 %360 to i64
  %362 = getelementptr inbounds [8 x i64], [8 x i64]* %8, i32 0, i32 1
  %363 = getelementptr inbounds i16, i16* %260, i32 1040
  %364 = ptrtoint i16* %363 to i32
  %365 = zext i32 %364 to i64
  %366 = getelementptr inbounds [8 x i64], [8 x i64]* %8, i32 0, i32 2
  %367 = getelementptr inbounds i16, i16* %260, i32 1280
  %368 = ptrtoint i16* %367 to i32
  %369 = zext i32 %368 to i64
  %370 = getelementptr inbounds [8 x i64], [8 x i64]* %8, i32 0, i32 3
  %371 = getelementptr inbounds i16, i16* %260, i32 1296
  %372 = ptrtoint i16* %371 to i32
  %373 = zext i32 %372 to i64
  %374 = getelementptr inbounds [8 x i64], [8 x i64]* %8, i32 0, i32 4
  %375 = getelementptr inbounds i16, i16* %260, i32 1536
  %376 = ptrtoint i16* %375 to i32
  %377 = zext i32 %376 to i64
  %378 = getelementptr inbounds [8 x i64], [8 x i64]* %8, i32 0, i32 5
  %379 = getelementptr inbounds i16, i16* %260, i32 1552
  %380 = ptrtoint i16* %379 to i32
  %381 = zext i32 %380 to i64
  %382 = getelementptr inbounds [8 x i64], [8 x i64]* %8, i32 0, i32 6
  %383 = getelementptr inbounds i16, i16* %260, i32 1792
  %384 = ptrtoint i16* %383 to i32
  %385 = zext i32 %384 to i64
  %386 = getelementptr inbounds [8 x i64], [8 x i64]* %8, i32 0, i32 7
  %387 = getelementptr inbounds i16, i16* %260, i32 1808
  %388 = ptrtoint i16* %387 to i32
  %389 = zext i32 %388 to i64
  %390 = icmp sgt i32 %60, 64
  %391 = icmp ugt i32 %108, 4
  %392 = shl i64 2, %118
  %393 = add i64 %392, -1
  %394 = urem i64 %393, 65535
  %395 = sub i64 %393, %394
  %396 = shl i64 2, %117
  %397 = add i64 %396, -1
  %398 = urem i64 %397, 65535
  %399 = sub i64 %397, %398
  %400 = inttoptr i32 %206 to i16*
  %401 = icmp sgt i64 %182, 4080
  %402 = icmp sgt i64 %181, 255
  %403 = icmp sgt i32 %60, 56
  %404 = shl i64 %71, 36
  %405 = ashr exact i64 %404, 32
  %406 = select i1 %179, i64 128, i64 %405
  %407 = sdiv i64 %182, 16
  %408 = lshr exact i64 %183, 4
  %409 = freeze i64 %181
  %410 = sdiv i64 %409, 255
  %411 = mul i64 %410, 255
  %412 = sub i64 %409, %411
  %413 = icmp eq i64 %412, 0
  %414 = trunc i64 %182 to i32
  %415 = mul i32 %414, 255
  %416 = zext i32 %415 to i64
  %417 = mul nsw i64 %410, %416
  %418 = trunc i64 %183 to i32
  %419 = mul nuw nsw i32 %418, 255
  %420 = zext i32 %419 to i64
  %421 = mul nsw i64 %410, %420
  %422 = icmp sgt i64 %181, 0
  %423 = shl i64 %182, 32
  %424 = ashr exact i64 %423, 32
  %425 = and i64 %70, 56
  %426 = icmp eq i64 %425, 0
  %427 = icmp sgt i32 %60, 2040
  %428 = icmp ugt i32 %109, 4
  %429 = shl i64 2, %113
  %430 = add i64 %429, -1
  %431 = urem i64 %430, 65535
  %432 = sub i64 %430, %431
  %433 = shl i64 2, %112
  %434 = add i64 %433, -1
  %435 = urem i64 %434, 65535
  %436 = sub i64 %434, %435
  %437 = bitcast [8 x i64]* %9 to i8*
  %438 = getelementptr inbounds [8 x i64], [8 x i64]* %9, i32 0, i32 0
  %439 = getelementptr inbounds [8 x i64], [8 x i64]* %9, i32 0, i32 1
  %440 = getelementptr inbounds [8 x i64], [8 x i64]* %9, i32 0, i32 2
  %441 = getelementptr inbounds [8 x i64], [8 x i64]* %9, i32 0, i32 3
  %442 = getelementptr inbounds [8 x i64], [8 x i64]* %9, i32 0, i32 4
  %443 = getelementptr inbounds [8 x i64], [8 x i64]* %9, i32 0, i32 5
  %444 = getelementptr inbounds [8 x i64], [8 x i64]* %9, i32 0, i32 6
  %445 = getelementptr inbounds [8 x i64], [8 x i64]* %9, i32 0, i32 7
  %446 = bitcast [8 x i64]* %10 to i8*
  %447 = getelementptr inbounds [8 x i64], [8 x i64]* %10, i32 0, i32 0
  %448 = getelementptr inbounds [8 x i64], [8 x i64]* %10, i32 0, i32 1
  %449 = getelementptr inbounds [8 x i64], [8 x i64]* %10, i32 0, i32 2
  %450 = getelementptr inbounds [8 x i64], [8 x i64]* %10, i32 0, i32 3
  %451 = getelementptr inbounds [8 x i64], [8 x i64]* %10, i32 0, i32 4
  %452 = getelementptr inbounds [8 x i64], [8 x i64]* %10, i32 0, i32 5
  %453 = getelementptr inbounds [8 x i64], [8 x i64]* %10, i32 0, i32 6
  %454 = getelementptr inbounds [8 x i64], [8 x i64]* %10, i32 0, i32 7
  %455 = bitcast [8 x i64]* %11 to i8*
  %456 = getelementptr inbounds [8 x i64], [8 x i64]* %11, i32 0, i32 0
  %457 = getelementptr inbounds [8 x i64], [8 x i64]* %11, i32 0, i32 1
  %458 = getelementptr inbounds [8 x i64], [8 x i64]* %11, i32 0, i32 2
  %459 = getelementptr inbounds [8 x i64], [8 x i64]* %11, i32 0, i32 3
  %460 = getelementptr inbounds [8 x i64], [8 x i64]* %11, i32 0, i32 4
  %461 = getelementptr inbounds [8 x i64], [8 x i64]* %11, i32 0, i32 5
  %462 = getelementptr inbounds [8 x i64], [8 x i64]* %11, i32 0, i32 6
  %463 = getelementptr inbounds [8 x i64], [8 x i64]* %11, i32 0, i32 7
  %464 = bitcast [8 x i64]* %12 to i8*
  %465 = getelementptr inbounds [8 x i64], [8 x i64]* %12, i32 0, i32 0
  %466 = getelementptr inbounds [8 x i64], [8 x i64]* %12, i32 0, i32 1
  %467 = getelementptr inbounds [8 x i64], [8 x i64]* %12, i32 0, i32 2
  %468 = getelementptr inbounds [8 x i64], [8 x i64]* %12, i32 0, i32 3
  %469 = getelementptr inbounds [8 x i64], [8 x i64]* %12, i32 0, i32 4
  %470 = getelementptr inbounds [8 x i64], [8 x i64]* %12, i32 0, i32 5
  %471 = getelementptr inbounds [8 x i64], [8 x i64]* %12, i32 0, i32 6
  %472 = getelementptr inbounds [8 x i64], [8 x i64]* %12, i32 0, i32 7
  %473 = icmp sgt i32 %60, 16312
  %474 = icmp eq i64 %123, 0
  %475 = icmp eq i32 %76, 0
  %476 = shl nuw nsw i64 2, %78
  %477 = add i64 %476, -1
  %478 = shl i64 2, %87
  %479 = add i64 %478, -1
  %480 = icmp eq i64 %104, 0
  %481 = icmp sgt i32 %66, 255
  %482 = icmp sgt i32 %66, 254
  %483 = icmp eq i64 %135, 0
  %484 = icmp sgt i64 %184, 2040
  %485 = icmp sgt i64 %83, 255
  %486 = icmp sgt i64 %85, 0
  %487 = shl i64 %86, 32
  %488 = ashr exact i64 %487, 32
  %489 = select i1 %84, i64 %488, i64 64
  %490 = sdiv i64 %184, 8
  %491 = icmp sgt i64 %83, 254
  %492 = trunc i64 %184 to i32
  %493 = mul i32 %492, 255
  %494 = zext i32 %493 to i64
  %495 = icmp eq i64 %128, 0
  %496 = mul nsw i64 %126, %494
  %497 = icmp sgt i64 %83, 0
  %498 = shl i64 %184, 32
  %499 = ashr exact i64 %498, 32
  %500 = trunc i64 %71 to i8
  %501 = trunc i64 %135 to i8
  %502 = trunc i64 %83 to i8
  %503 = trunc i64 %490 to i8
  %504 = trunc i64 %128 to i8
  %505 = and i32 %108, 65535
  %506 = zext i32 %505 to i64
  %507 = icmp slt i32 %60, 2040
  %508 = icmp sgt i32 %66, 240
  %509 = and i32 %66, 255
  %510 = zext i32 %509 to i64
  %511 = icmp eq i64 %142, 0
  %512 = and i32 %144, 255
  %513 = zext i32 %512 to i64
  %514 = trunc i64 %130 to i32
  %515 = mul i32 %514, 16320
  %516 = getelementptr inbounds float, float* %207, i32 %515
  %517 = trunc i64 %140 to i32
  %518 = mul i32 %517, 15360
  %519 = getelementptr inbounds float, float* %207, i32 %518
  %520 = bitcast [8 x i64]* %13 to i8*
  %521 = getelementptr inbounds [8 x i64], [8 x i64]* %13, i32 0, i32 0
  %522 = getelementptr inbounds [8 x i64], [8 x i64]* %13, i32 0, i32 1
  %523 = getelementptr inbounds [8 x i64], [8 x i64]* %13, i32 0, i32 2
  %524 = getelementptr inbounds [8 x i64], [8 x i64]* %13, i32 0, i32 3
  %525 = getelementptr inbounds [8 x i64], [8 x i64]* %13, i32 0, i32 4
  %526 = getelementptr inbounds [8 x i64], [8 x i64]* %13, i32 0, i32 5
  %527 = getelementptr inbounds [8 x i64], [8 x i64]* %13, i32 0, i32 6
  %528 = getelementptr inbounds [8 x i64], [8 x i64]* %13, i32 0, i32 7
  %529 = bitcast [8 x i64]* %14 to i8*
  %530 = getelementptr inbounds [8 x i64], [8 x i64]* %14, i32 0, i32 0
  %531 = getelementptr inbounds [8 x i64], [8 x i64]* %14, i32 0, i32 1
  %532 = getelementptr inbounds [8 x i64], [8 x i64]* %14, i32 0, i32 2
  %533 = getelementptr inbounds [8 x i64], [8 x i64]* %14, i32 0, i32 3
  %534 = getelementptr inbounds [8 x i64], [8 x i64]* %14, i32 0, i32 4
  %535 = getelementptr inbounds [8 x i64], [8 x i64]* %14, i32 0, i32 5
  %536 = getelementptr inbounds [8 x i64], [8 x i64]* %14, i32 0, i32 6
  %537 = getelementptr inbounds [8 x i64], [8 x i64]* %14, i32 0, i32 7
  %538 = bitcast [8 x i64]* %15 to i8*
  %539 = getelementptr inbounds [8 x i64], [8 x i64]* %15, i32 0, i32 0
  %540 = getelementptr inbounds [8 x i64], [8 x i64]* %15, i32 0, i32 1
  %541 = getelementptr inbounds [8 x i64], [8 x i64]* %15, i32 0, i32 2
  %542 = getelementptr inbounds [8 x i64], [8 x i64]* %15, i32 0, i32 3
  %543 = getelementptr inbounds [8 x i64], [8 x i64]* %15, i32 0, i32 4
  %544 = getelementptr inbounds [8 x i64], [8 x i64]* %15, i32 0, i32 5
  %545 = getelementptr inbounds [8 x i64], [8 x i64]* %15, i32 0, i32 6
  %546 = getelementptr inbounds [8 x i64], [8 x i64]* %15, i32 0, i32 7
  %547 = bitcast [8 x i64]* %16 to i8*
  %548 = getelementptr inbounds [8 x i64], [8 x i64]* %16, i32 0, i32 0
  %549 = getelementptr inbounds [8 x i64], [8 x i64]* %16, i32 0, i32 1
  %550 = getelementptr inbounds [8 x i64], [8 x i64]* %16, i32 0, i32 2
  %551 = getelementptr inbounds [8 x i64], [8 x i64]* %16, i32 0, i32 3
  %552 = getelementptr inbounds [8 x i64], [8 x i64]* %16, i32 0, i32 4
  %553 = getelementptr inbounds [8 x i64], [8 x i64]* %16, i32 0, i32 5
  %554 = getelementptr inbounds [8 x i64], [8 x i64]* %16, i32 0, i32 6
  %555 = getelementptr inbounds [8 x i64], [8 x i64]* %16, i32 0, i32 7
  %556 = bitcast [8 x i64]* %17 to i8*
  %557 = getelementptr inbounds [8 x i64], [8 x i64]* %17, i32 0, i32 0
  %558 = getelementptr inbounds [8 x i64], [8 x i64]* %17, i32 0, i32 1
  %559 = getelementptr inbounds [8 x i64], [8 x i64]* %17, i32 0, i32 2
  %560 = getelementptr inbounds [8 x i64], [8 x i64]* %17, i32 0, i32 3
  %561 = getelementptr inbounds [8 x i64], [8 x i64]* %17, i32 0, i32 4
  %562 = getelementptr inbounds [8 x i64], [8 x i64]* %17, i32 0, i32 5
  %563 = getelementptr inbounds [8 x i64], [8 x i64]* %17, i32 0, i32 6
  %564 = getelementptr inbounds [8 x i64], [8 x i64]* %17, i32 0, i32 7
  %565 = bitcast [8 x i64]* %18 to i8*
  %566 = getelementptr inbounds [8 x i64], [8 x i64]* %18, i32 0, i32 0
  %567 = getelementptr inbounds [8 x i64], [8 x i64]* %18, i32 0, i32 1
  %568 = getelementptr inbounds [8 x i64], [8 x i64]* %18, i32 0, i32 2
  %569 = getelementptr inbounds [8 x i64], [8 x i64]* %18, i32 0, i32 3
  %570 = getelementptr inbounds [8 x i64], [8 x i64]* %18, i32 0, i32 4
  %571 = getelementptr inbounds [8 x i64], [8 x i64]* %18, i32 0, i32 5
  %572 = getelementptr inbounds [8 x i64], [8 x i64]* %18, i32 0, i32 6
  %573 = getelementptr inbounds [8 x i64], [8 x i64]* %18, i32 0, i32 7
  %574 = bitcast [8 x i64]* %19 to i8*
  %575 = getelementptr inbounds [8 x i64], [8 x i64]* %19, i32 0, i32 0
  %576 = getelementptr inbounds [8 x i64], [8 x i64]* %19, i32 0, i32 1
  %577 = getelementptr inbounds [8 x i64], [8 x i64]* %19, i32 0, i32 2
  %578 = getelementptr inbounds [8 x i64], [8 x i64]* %19, i32 0, i32 3
  %579 = getelementptr inbounds [8 x i64], [8 x i64]* %19, i32 0, i32 4
  %580 = getelementptr inbounds [8 x i64], [8 x i64]* %19, i32 0, i32 5
  %581 = getelementptr inbounds [8 x i64], [8 x i64]* %19, i32 0, i32 6
  %582 = getelementptr inbounds [8 x i64], [8 x i64]* %19, i32 0, i32 7
  %583 = bitcast [8 x i64]* %20 to i8*
  %584 = getelementptr inbounds [8 x i64], [8 x i64]* %20, i32 0, i32 0
  %585 = getelementptr inbounds [8 x i64], [8 x i64]* %20, i32 0, i32 1
  %586 = getelementptr inbounds [8 x i64], [8 x i64]* %20, i32 0, i32 2
  %587 = getelementptr inbounds [8 x i64], [8 x i64]* %20, i32 0, i32 3
  %588 = getelementptr inbounds [8 x i64], [8 x i64]* %20, i32 0, i32 4
  %589 = getelementptr inbounds [8 x i64], [8 x i64]* %20, i32 0, i32 5
  %590 = getelementptr inbounds [8 x i64], [8 x i64]* %20, i32 0, i32 6
  %591 = getelementptr inbounds [8 x i64], [8 x i64]* %20, i32 0, i32 7
  %592 = icmp slt i32 %60, 8
  %593 = icmp sgt i32 %60, 7
  %594 = and i64 %69, 15
  %595 = icmp eq i64 %594, 0
  %596 = or i64 %156, %158
  %597 = icmp sgt i64 %596, -1
  %598 = inttoptr i32 %194 to i16*
  %599 = trunc i64 %155 to i16
  %600 = trunc i64 %156 to i16
  %601 = trunc i64 %158 to i16
  %602 = bitcast float* %1 to i16*
  %603 = shl nsw i64 %86, 1
  %604 = add nsw i64 %159, -16
  %605 = bitcast [8 x i64]* %37 to i8*
  %606 = getelementptr inbounds [8 x i64], [8 x i64]* %37, i32 0, i32 0
  %607 = getelementptr inbounds [8 x i64], [8 x i64]* %37, i32 0, i32 1
  %608 = getelementptr inbounds [8 x i64], [8 x i64]* %37, i32 0, i32 2
  %609 = getelementptr inbounds [8 x i64], [8 x i64]* %37, i32 0, i32 3
  %610 = getelementptr inbounds [8 x i64], [8 x i64]* %37, i32 0, i32 4
  %611 = getelementptr inbounds [8 x i64], [8 x i64]* %37, i32 0, i32 5
  %612 = getelementptr inbounds [8 x i64], [8 x i64]* %37, i32 0, i32 6
  %613 = getelementptr inbounds [8 x i64], [8 x i64]* %37, i32 0, i32 7
  %614 = bitcast [8 x i64]* %38 to i8*
  %615 = getelementptr inbounds [8 x i64], [8 x i64]* %38, i32 0, i32 0
  %616 = getelementptr inbounds [8 x i64], [8 x i64]* %38, i32 0, i32 1
  %617 = getelementptr inbounds [8 x i64], [8 x i64]* %38, i32 0, i32 2
  %618 = getelementptr inbounds [8 x i64], [8 x i64]* %38, i32 0, i32 3
  %619 = getelementptr inbounds [8 x i64], [8 x i64]* %38, i32 0, i32 4
  %620 = getelementptr inbounds [8 x i64], [8 x i64]* %38, i32 0, i32 5
  %621 = getelementptr inbounds [8 x i64], [8 x i64]* %38, i32 0, i32 6
  %622 = getelementptr inbounds [8 x i64], [8 x i64]* %38, i32 0, i32 7
  %623 = bitcast [8 x i64]* %39 to i8*
  %624 = getelementptr inbounds [8 x i64], [8 x i64]* %39, i32 0, i32 0
  %625 = getelementptr inbounds [8 x i64], [8 x i64]* %39, i32 0, i32 1
  %626 = getelementptr inbounds [8 x i64], [8 x i64]* %39, i32 0, i32 2
  %627 = getelementptr inbounds [8 x i64], [8 x i64]* %39, i32 0, i32 3
  %628 = getelementptr inbounds [8 x i64], [8 x i64]* %39, i32 0, i32 4
  %629 = getelementptr inbounds [8 x i64], [8 x i64]* %39, i32 0, i32 5
  %630 = getelementptr inbounds [8 x i64], [8 x i64]* %39, i32 0, i32 6
  %631 = getelementptr inbounds [8 x i64], [8 x i64]* %39, i32 0, i32 7
  %632 = bitcast [8 x i64]* %40 to i8*
  %633 = getelementptr inbounds [8 x i64], [8 x i64]* %40, i32 0, i32 0
  %634 = getelementptr inbounds [8 x i64], [8 x i64]* %40, i32 0, i32 1
  %635 = getelementptr inbounds [8 x i64], [8 x i64]* %40, i32 0, i32 2
  %636 = getelementptr inbounds [8 x i64], [8 x i64]* %40, i32 0, i32 3
  %637 = getelementptr inbounds [8 x i64], [8 x i64]* %40, i32 0, i32 4
  %638 = getelementptr inbounds [8 x i64], [8 x i64]* %40, i32 0, i32 5
  %639 = getelementptr inbounds [8 x i64], [8 x i64]* %40, i32 0, i32 6
  %640 = getelementptr inbounds [8 x i64], [8 x i64]* %40, i32 0, i32 7
  %641 = bitcast [8 x i64]* %41 to i8*
  %642 = getelementptr inbounds [8 x i64], [8 x i64]* %41, i32 0, i32 0
  %643 = getelementptr inbounds [8 x i64], [8 x i64]* %41, i32 0, i32 1
  %644 = getelementptr inbounds [8 x i64], [8 x i64]* %41, i32 0, i32 2
  %645 = getelementptr inbounds [8 x i64], [8 x i64]* %41, i32 0, i32 3
  %646 = getelementptr inbounds [8 x i64], [8 x i64]* %41, i32 0, i32 4
  %647 = getelementptr inbounds [8 x i64], [8 x i64]* %41, i32 0, i32 5
  %648 = getelementptr inbounds [8 x i64], [8 x i64]* %41, i32 0, i32 6
  %649 = getelementptr inbounds [8 x i64], [8 x i64]* %41, i32 0, i32 7
  %650 = bitcast [8 x i64]* %42 to i8*
  %651 = getelementptr inbounds [8 x i64], [8 x i64]* %42, i32 0, i32 0
  %652 = getelementptr inbounds [8 x i64], [8 x i64]* %42, i32 0, i32 1
  %653 = getelementptr inbounds [8 x i64], [8 x i64]* %42, i32 0, i32 2
  %654 = getelementptr inbounds [8 x i64], [8 x i64]* %42, i32 0, i32 3
  %655 = getelementptr inbounds [8 x i64], [8 x i64]* %42, i32 0, i32 4
  %656 = getelementptr inbounds [8 x i64], [8 x i64]* %42, i32 0, i32 5
  %657 = getelementptr inbounds [8 x i64], [8 x i64]* %42, i32 0, i32 6
  %658 = getelementptr inbounds [8 x i64], [8 x i64]* %42, i32 0, i32 7
  %659 = bitcast [8 x i64]* %43 to i8*
  %660 = getelementptr inbounds [8 x i64], [8 x i64]* %43, i32 0, i32 0
  %661 = getelementptr inbounds [8 x i64], [8 x i64]* %43, i32 0, i32 1
  %662 = getelementptr inbounds [8 x i64], [8 x i64]* %43, i32 0, i32 2
  %663 = getelementptr inbounds [8 x i64], [8 x i64]* %43, i32 0, i32 3
  %664 = getelementptr inbounds [8 x i64], [8 x i64]* %43, i32 0, i32 4
  %665 = getelementptr inbounds [8 x i64], [8 x i64]* %43, i32 0, i32 5
  %666 = getelementptr inbounds [8 x i64], [8 x i64]* %43, i32 0, i32 6
  %667 = getelementptr inbounds [8 x i64], [8 x i64]* %43, i32 0, i32 7
  %668 = bitcast [8 x i64]* %44 to i8*
  %669 = getelementptr inbounds [8 x i64], [8 x i64]* %44, i32 0, i32 0
  %670 = getelementptr inbounds [8 x i64], [8 x i64]* %44, i32 0, i32 1
  %671 = getelementptr inbounds [8 x i64], [8 x i64]* %44, i32 0, i32 2
  %672 = getelementptr inbounds [8 x i64], [8 x i64]* %44, i32 0, i32 3
  %673 = getelementptr inbounds [8 x i64], [8 x i64]* %44, i32 0, i32 4
  %674 = getelementptr inbounds [8 x i64], [8 x i64]* %44, i32 0, i32 5
  %675 = getelementptr inbounds [8 x i64], [8 x i64]* %44, i32 0, i32 6
  %676 = getelementptr inbounds [8 x i64], [8 x i64]* %44, i32 0, i32 7
  %677 = bitcast [8 x i64]* %45 to i8*
  %678 = getelementptr inbounds [8 x i64], [8 x i64]* %45, i32 0, i32 0
  %679 = getelementptr inbounds [8 x i64], [8 x i64]* %45, i32 0, i32 1
  %680 = getelementptr inbounds [8 x i64], [8 x i64]* %45, i32 0, i32 2
  %681 = getelementptr inbounds [8 x i64], [8 x i64]* %45, i32 0, i32 3
  %682 = getelementptr inbounds [8 x i64], [8 x i64]* %45, i32 0, i32 4
  %683 = getelementptr inbounds [8 x i64], [8 x i64]* %45, i32 0, i32 5
  %684 = getelementptr inbounds [8 x i64], [8 x i64]* %45, i32 0, i32 6
  %685 = getelementptr inbounds [8 x i64], [8 x i64]* %45, i32 0, i32 7
  %686 = bitcast [8 x i64]* %46 to i8*
  %687 = getelementptr inbounds [8 x i64], [8 x i64]* %46, i32 0, i32 0
  %688 = getelementptr inbounds [8 x i64], [8 x i64]* %46, i32 0, i32 1
  %689 = getelementptr inbounds [8 x i64], [8 x i64]* %46, i32 0, i32 2
  %690 = getelementptr inbounds [8 x i64], [8 x i64]* %46, i32 0, i32 3
  %691 = getelementptr inbounds [8 x i64], [8 x i64]* %46, i32 0, i32 4
  %692 = getelementptr inbounds [8 x i64], [8 x i64]* %46, i32 0, i32 5
  %693 = getelementptr inbounds [8 x i64], [8 x i64]* %46, i32 0, i32 6
  %694 = getelementptr inbounds [8 x i64], [8 x i64]* %46, i32 0, i32 7
  %695 = bitcast [8 x i64]* %47 to i8*
  %696 = getelementptr inbounds [8 x i64], [8 x i64]* %47, i32 0, i32 0
  %697 = getelementptr inbounds [8 x i64], [8 x i64]* %47, i32 0, i32 1
  %698 = getelementptr inbounds [8 x i64], [8 x i64]* %47, i32 0, i32 2
  %699 = getelementptr inbounds [8 x i64], [8 x i64]* %47, i32 0, i32 3
  %700 = getelementptr inbounds [8 x i64], [8 x i64]* %47, i32 0, i32 4
  %701 = getelementptr inbounds [8 x i64], [8 x i64]* %47, i32 0, i32 5
  %702 = getelementptr inbounds [8 x i64], [8 x i64]* %47, i32 0, i32 6
  %703 = getelementptr inbounds [8 x i64], [8 x i64]* %47, i32 0, i32 7
  %704 = bitcast [8 x i64]* %48 to i8*
  %705 = getelementptr inbounds [8 x i64], [8 x i64]* %48, i32 0, i32 0
  %706 = getelementptr inbounds [8 x i64], [8 x i64]* %48, i32 0, i32 1
  %707 = getelementptr inbounds [8 x i64], [8 x i64]* %48, i32 0, i32 2
  %708 = getelementptr inbounds [8 x i64], [8 x i64]* %48, i32 0, i32 3
  %709 = getelementptr inbounds [8 x i64], [8 x i64]* %48, i32 0, i32 4
  %710 = getelementptr inbounds [8 x i64], [8 x i64]* %48, i32 0, i32 5
  %711 = getelementptr inbounds [8 x i64], [8 x i64]* %48, i32 0, i32 6
  %712 = getelementptr inbounds [8 x i64], [8 x i64]* %48, i32 0, i32 7
  %713 = bitcast [8 x i64]* %49 to i8*
  %714 = getelementptr inbounds [8 x i64], [8 x i64]* %49, i32 0, i32 0
  %715 = getelementptr inbounds [8 x i64], [8 x i64]* %49, i32 0, i32 1
  %716 = getelementptr inbounds [8 x i64], [8 x i64]* %49, i32 0, i32 2
  %717 = getelementptr inbounds [8 x i64], [8 x i64]* %49, i32 0, i32 3
  %718 = getelementptr inbounds [8 x i64], [8 x i64]* %49, i32 0, i32 4
  %719 = getelementptr inbounds [8 x i64], [8 x i64]* %49, i32 0, i32 5
  %720 = getelementptr inbounds [8 x i64], [8 x i64]* %49, i32 0, i32 6
  %721 = getelementptr inbounds [8 x i64], [8 x i64]* %49, i32 0, i32 7
  %722 = bitcast [8 x i64]* %50 to i8*
  %723 = getelementptr inbounds [8 x i64], [8 x i64]* %50, i32 0, i32 0
  %724 = getelementptr inbounds [8 x i64], [8 x i64]* %50, i32 0, i32 1
  %725 = getelementptr inbounds [8 x i64], [8 x i64]* %50, i32 0, i32 2
  %726 = getelementptr inbounds [8 x i64], [8 x i64]* %50, i32 0, i32 3
  %727 = getelementptr inbounds [8 x i64], [8 x i64]* %50, i32 0, i32 4
  %728 = getelementptr inbounds [8 x i64], [8 x i64]* %50, i32 0, i32 5
  %729 = getelementptr inbounds [8 x i64], [8 x i64]* %50, i32 0, i32 6
  %730 = getelementptr inbounds [8 x i64], [8 x i64]* %50, i32 0, i32 7
  %731 = bitcast [8 x i64]* %51 to i8*
  %732 = getelementptr inbounds [8 x i64], [8 x i64]* %51, i32 0, i32 0
  %733 = getelementptr inbounds [8 x i64], [8 x i64]* %51, i32 0, i32 1
  %734 = getelementptr inbounds [8 x i64], [8 x i64]* %51, i32 0, i32 2
  %735 = getelementptr inbounds [8 x i64], [8 x i64]* %51, i32 0, i32 3
  %736 = getelementptr inbounds [8 x i64], [8 x i64]* %51, i32 0, i32 4
  %737 = getelementptr inbounds [8 x i64], [8 x i64]* %51, i32 0, i32 5
  %738 = getelementptr inbounds [8 x i64], [8 x i64]* %51, i32 0, i32 6
  %739 = getelementptr inbounds [8 x i64], [8 x i64]* %51, i32 0, i32 7
  %740 = bitcast [8 x i64]* %52 to i8*
  %741 = getelementptr inbounds [8 x i64], [8 x i64]* %52, i32 0, i32 0
  %742 = getelementptr inbounds [8 x i64], [8 x i64]* %52, i32 0, i32 1
  %743 = getelementptr inbounds [8 x i64], [8 x i64]* %52, i32 0, i32 2
  %744 = getelementptr inbounds [8 x i64], [8 x i64]* %52, i32 0, i32 3
  %745 = getelementptr inbounds [8 x i64], [8 x i64]* %52, i32 0, i32 4
  %746 = getelementptr inbounds [8 x i64], [8 x i64]* %52, i32 0, i32 5
  %747 = getelementptr inbounds [8 x i64], [8 x i64]* %52, i32 0, i32 6
  %748 = getelementptr inbounds [8 x i64], [8 x i64]* %52, i32 0, i32 7
  %749 = shl i32 %60, 1
  %750 = trunc i64 %157 to i16
  %751 = add i16 %750, -1
  %752 = getelementptr inbounds i16, i16* %220, i32 256
  %753 = icmp slt i64 %150, 8
  %754 = sub i64 %153, %154
  %755 = icmp sgt i64 %149, 0
  %756 = icmp sgt i32 %60, 0
  %757 = add nsw i64 %69, 8
  %758 = sub nsw i64 %757, %153
  %759 = inttoptr i32 %225 to i8*
  %760 = bitcast [8 x i64]* %21 to i8*
  %761 = getelementptr inbounds [8 x i64], [8 x i64]* %21, i32 0, i32 0
  %762 = getelementptr inbounds [8 x i64], [8 x i64]* %21, i32 0, i32 1
  %763 = getelementptr inbounds [8 x i64], [8 x i64]* %21, i32 0, i32 2
  %764 = getelementptr inbounds [8 x i64], [8 x i64]* %21, i32 0, i32 3
  %765 = getelementptr inbounds [8 x i64], [8 x i64]* %21, i32 0, i32 4
  %766 = getelementptr inbounds [8 x i64], [8 x i64]* %21, i32 0, i32 5
  %767 = getelementptr inbounds [8 x i64], [8 x i64]* %21, i32 0, i32 6
  %768 = getelementptr inbounds [8 x i64], [8 x i64]* %21, i32 0, i32 7
  %769 = bitcast [8 x i64]* %22 to i8*
  %770 = getelementptr inbounds [8 x i64], [8 x i64]* %22, i32 0, i32 0
  %771 = getelementptr inbounds [8 x i64], [8 x i64]* %22, i32 0, i32 1
  %772 = getelementptr inbounds [8 x i64], [8 x i64]* %22, i32 0, i32 2
  %773 = getelementptr inbounds [8 x i64], [8 x i64]* %22, i32 0, i32 3
  %774 = getelementptr inbounds [8 x i64], [8 x i64]* %22, i32 0, i32 4
  %775 = getelementptr inbounds [8 x i64], [8 x i64]* %22, i32 0, i32 5
  %776 = getelementptr inbounds [8 x i64], [8 x i64]* %22, i32 0, i32 6
  %777 = getelementptr inbounds [8 x i64], [8 x i64]* %22, i32 0, i32 7
  %778 = bitcast [8 x i64]* %23 to i8*
  %779 = getelementptr inbounds [8 x i64], [8 x i64]* %23, i32 0, i32 0
  %780 = getelementptr inbounds [8 x i64], [8 x i64]* %23, i32 0, i32 1
  %781 = getelementptr inbounds [8 x i64], [8 x i64]* %23, i32 0, i32 2
  %782 = getelementptr inbounds [8 x i64], [8 x i64]* %23, i32 0, i32 3
  %783 = getelementptr inbounds [8 x i64], [8 x i64]* %23, i32 0, i32 4
  %784 = getelementptr inbounds [8 x i64], [8 x i64]* %23, i32 0, i32 5
  %785 = getelementptr inbounds [8 x i64], [8 x i64]* %23, i32 0, i32 6
  %786 = getelementptr inbounds [8 x i64], [8 x i64]* %23, i32 0, i32 7
  %787 = bitcast [8 x i64]* %24 to i8*
  %788 = getelementptr inbounds [8 x i64], [8 x i64]* %24, i32 0, i32 0
  %789 = getelementptr inbounds [8 x i64], [8 x i64]* %24, i32 0, i32 1
  %790 = getelementptr inbounds [8 x i64], [8 x i64]* %24, i32 0, i32 2
  %791 = getelementptr inbounds [8 x i64], [8 x i64]* %24, i32 0, i32 3
  %792 = getelementptr inbounds [8 x i64], [8 x i64]* %24, i32 0, i32 4
  %793 = getelementptr inbounds [8 x i64], [8 x i64]* %24, i32 0, i32 5
  %794 = getelementptr inbounds [8 x i64], [8 x i64]* %24, i32 0, i32 6
  %795 = getelementptr inbounds [8 x i64], [8 x i64]* %24, i32 0, i32 7
  %796 = bitcast [8 x i64]* %25 to i8*
  %797 = getelementptr inbounds [8 x i64], [8 x i64]* %25, i32 0, i32 0
  %798 = getelementptr inbounds [8 x i64], [8 x i64]* %25, i32 0, i32 1
  %799 = getelementptr inbounds [8 x i64], [8 x i64]* %25, i32 0, i32 2
  %800 = getelementptr inbounds [8 x i64], [8 x i64]* %25, i32 0, i32 3
  %801 = getelementptr inbounds [8 x i64], [8 x i64]* %25, i32 0, i32 4
  %802 = getelementptr inbounds [8 x i64], [8 x i64]* %25, i32 0, i32 5
  %803 = getelementptr inbounds [8 x i64], [8 x i64]* %25, i32 0, i32 6
  %804 = getelementptr inbounds [8 x i64], [8 x i64]* %25, i32 0, i32 7
  %805 = bitcast [8 x i64]* %26 to i8*
  %806 = getelementptr inbounds [8 x i64], [8 x i64]* %26, i32 0, i32 0
  %807 = getelementptr inbounds [8 x i64], [8 x i64]* %26, i32 0, i32 1
  %808 = getelementptr inbounds [8 x i64], [8 x i64]* %26, i32 0, i32 2
  %809 = getelementptr inbounds [8 x i64], [8 x i64]* %26, i32 0, i32 3
  %810 = getelementptr inbounds [8 x i64], [8 x i64]* %26, i32 0, i32 4
  %811 = getelementptr inbounds [8 x i64], [8 x i64]* %26, i32 0, i32 5
  %812 = getelementptr inbounds [8 x i64], [8 x i64]* %26, i32 0, i32 6
  %813 = getelementptr inbounds [8 x i64], [8 x i64]* %26, i32 0, i32 7
  %814 = bitcast [8 x i64]* %27 to i8*
  %815 = getelementptr inbounds [8 x i64], [8 x i64]* %27, i32 0, i32 0
  %816 = getelementptr inbounds [8 x i64], [8 x i64]* %27, i32 0, i32 1
  %817 = getelementptr inbounds [8 x i64], [8 x i64]* %27, i32 0, i32 2
  %818 = getelementptr inbounds [8 x i64], [8 x i64]* %27, i32 0, i32 3
  %819 = getelementptr inbounds [8 x i64], [8 x i64]* %27, i32 0, i32 4
  %820 = getelementptr inbounds [8 x i64], [8 x i64]* %27, i32 0, i32 5
  %821 = getelementptr inbounds [8 x i64], [8 x i64]* %27, i32 0, i32 6
  %822 = getelementptr inbounds [8 x i64], [8 x i64]* %27, i32 0, i32 7
  %823 = bitcast [8 x i64]* %28 to i8*
  %824 = getelementptr inbounds [8 x i64], [8 x i64]* %28, i32 0, i32 0
  %825 = getelementptr inbounds [8 x i64], [8 x i64]* %28, i32 0, i32 1
  %826 = getelementptr inbounds [8 x i64], [8 x i64]* %28, i32 0, i32 2
  %827 = getelementptr inbounds [8 x i64], [8 x i64]* %28, i32 0, i32 3
  %828 = getelementptr inbounds [8 x i64], [8 x i64]* %28, i32 0, i32 4
  %829 = getelementptr inbounds [8 x i64], [8 x i64]* %28, i32 0, i32 5
  %830 = getelementptr inbounds [8 x i64], [8 x i64]* %28, i32 0, i32 6
  %831 = getelementptr inbounds [8 x i64], [8 x i64]* %28, i32 0, i32 7
  %832 = bitcast [8 x i64]* %29 to i8*
  %833 = getelementptr inbounds [8 x i64], [8 x i64]* %29, i32 0, i32 0
  %834 = getelementptr inbounds [8 x i64], [8 x i64]* %29, i32 0, i32 1
  %835 = getelementptr inbounds [8 x i64], [8 x i64]* %29, i32 0, i32 2
  %836 = getelementptr inbounds [8 x i64], [8 x i64]* %29, i32 0, i32 3
  %837 = getelementptr inbounds [8 x i64], [8 x i64]* %29, i32 0, i32 4
  %838 = getelementptr inbounds [8 x i64], [8 x i64]* %29, i32 0, i32 5
  %839 = getelementptr inbounds [8 x i64], [8 x i64]* %29, i32 0, i32 6
  %840 = getelementptr inbounds [8 x i64], [8 x i64]* %29, i32 0, i32 7
  %841 = bitcast [8 x i64]* %30 to i8*
  %842 = getelementptr inbounds [8 x i64], [8 x i64]* %30, i32 0, i32 0
  %843 = getelementptr inbounds [8 x i64], [8 x i64]* %30, i32 0, i32 1
  %844 = getelementptr inbounds [8 x i64], [8 x i64]* %30, i32 0, i32 2
  %845 = getelementptr inbounds [8 x i64], [8 x i64]* %30, i32 0, i32 3
  %846 = getelementptr inbounds [8 x i64], [8 x i64]* %30, i32 0, i32 4
  %847 = getelementptr inbounds [8 x i64], [8 x i64]* %30, i32 0, i32 5
  %848 = getelementptr inbounds [8 x i64], [8 x i64]* %30, i32 0, i32 6
  %849 = getelementptr inbounds [8 x i64], [8 x i64]* %30, i32 0, i32 7
  %850 = bitcast [8 x i64]* %31 to i8*
  %851 = getelementptr inbounds [8 x i64], [8 x i64]* %31, i32 0, i32 0
  %852 = getelementptr inbounds [8 x i64], [8 x i64]* %31, i32 0, i32 1
  %853 = getelementptr inbounds [8 x i64], [8 x i64]* %31, i32 0, i32 2
  %854 = getelementptr inbounds [8 x i64], [8 x i64]* %31, i32 0, i32 3
  %855 = getelementptr inbounds [8 x i64], [8 x i64]* %31, i32 0, i32 4
  %856 = getelementptr inbounds [8 x i64], [8 x i64]* %31, i32 0, i32 5
  %857 = getelementptr inbounds [8 x i64], [8 x i64]* %31, i32 0, i32 6
  %858 = getelementptr inbounds [8 x i64], [8 x i64]* %31, i32 0, i32 7
  %859 = bitcast [8 x i64]* %32 to i8*
  %860 = getelementptr inbounds [8 x i64], [8 x i64]* %32, i32 0, i32 0
  %861 = getelementptr inbounds [8 x i64], [8 x i64]* %32, i32 0, i32 1
  %862 = getelementptr inbounds [8 x i64], [8 x i64]* %32, i32 0, i32 2
  %863 = getelementptr inbounds [8 x i64], [8 x i64]* %32, i32 0, i32 3
  %864 = getelementptr inbounds [8 x i64], [8 x i64]* %32, i32 0, i32 4
  %865 = getelementptr inbounds [8 x i64], [8 x i64]* %32, i32 0, i32 5
  %866 = getelementptr inbounds [8 x i64], [8 x i64]* %32, i32 0, i32 6
  %867 = getelementptr inbounds [8 x i64], [8 x i64]* %32, i32 0, i32 7
  %868 = bitcast [8 x i64]* %33 to i8*
  %869 = getelementptr inbounds [8 x i64], [8 x i64]* %33, i32 0, i32 0
  %870 = getelementptr inbounds [8 x i64], [8 x i64]* %33, i32 0, i32 1
  %871 = getelementptr inbounds [8 x i64], [8 x i64]* %33, i32 0, i32 2
  %872 = getelementptr inbounds [8 x i64], [8 x i64]* %33, i32 0, i32 3
  %873 = getelementptr inbounds [8 x i64], [8 x i64]* %33, i32 0, i32 4
  %874 = getelementptr inbounds [8 x i64], [8 x i64]* %33, i32 0, i32 5
  %875 = getelementptr inbounds [8 x i64], [8 x i64]* %33, i32 0, i32 6
  %876 = getelementptr inbounds [8 x i64], [8 x i64]* %33, i32 0, i32 7
  %877 = bitcast [8 x i64]* %34 to i8*
  %878 = getelementptr inbounds [8 x i64], [8 x i64]* %34, i32 0, i32 0
  %879 = getelementptr inbounds [8 x i64], [8 x i64]* %34, i32 0, i32 1
  %880 = getelementptr inbounds [8 x i64], [8 x i64]* %34, i32 0, i32 2
  %881 = getelementptr inbounds [8 x i64], [8 x i64]* %34, i32 0, i32 3
  %882 = getelementptr inbounds [8 x i64], [8 x i64]* %34, i32 0, i32 4
  %883 = getelementptr inbounds [8 x i64], [8 x i64]* %34, i32 0, i32 5
  %884 = getelementptr inbounds [8 x i64], [8 x i64]* %34, i32 0, i32 6
  %885 = getelementptr inbounds [8 x i64], [8 x i64]* %34, i32 0, i32 7
  %886 = bitcast [8 x i64]* %35 to i8*
  %887 = getelementptr inbounds [8 x i64], [8 x i64]* %35, i32 0, i32 0
  %888 = getelementptr inbounds [8 x i64], [8 x i64]* %35, i32 0, i32 1
  %889 = getelementptr inbounds [8 x i64], [8 x i64]* %35, i32 0, i32 2
  %890 = getelementptr inbounds [8 x i64], [8 x i64]* %35, i32 0, i32 3
  %891 = getelementptr inbounds [8 x i64], [8 x i64]* %35, i32 0, i32 4
  %892 = getelementptr inbounds [8 x i64], [8 x i64]* %35, i32 0, i32 5
  %893 = getelementptr inbounds [8 x i64], [8 x i64]* %35, i32 0, i32 6
  %894 = getelementptr inbounds [8 x i64], [8 x i64]* %35, i32 0, i32 7
  %895 = bitcast [8 x i64]* %36 to i8*
  %896 = getelementptr inbounds [8 x i64], [8 x i64]* %36, i32 0, i32 0
  %897 = getelementptr inbounds [8 x i64], [8 x i64]* %36, i32 0, i32 1
  %898 = getelementptr inbounds [8 x i64], [8 x i64]* %36, i32 0, i32 2
  %899 = getelementptr inbounds [8 x i64], [8 x i64]* %36, i32 0, i32 3
  %900 = getelementptr inbounds [8 x i64], [8 x i64]* %36, i32 0, i32 4
  %901 = getelementptr inbounds [8 x i64], [8 x i64]* %36, i32 0, i32 5
  %902 = getelementptr inbounds [8 x i64], [8 x i64]* %36, i32 0, i32 6
  %903 = getelementptr inbounds [8 x i64], [8 x i64]* %36, i32 0, i32 7
  %904 = inttoptr i32 %216 to i8*
  %905 = icmp ne i64 %91, 0
  %906 = getelementptr inbounds float, float* %201, i32 3
  %907 = bitcast float* %906 to i32*
  %908 = getelementptr inbounds float, float* %201, i32 2
  %909 = bitcast float* %908 to i32*
  %910 = getelementptr inbounds float, float* %204, i32 3
  %911 = bitcast float* %910 to i32*
  %912 = getelementptr inbounds float, float* %201, i32 7
  %913 = bitcast float* %912 to i32*
  %914 = getelementptr inbounds float, float* %204, i32 2
  %915 = bitcast float* %914 to i32*
  %916 = getelementptr inbounds float, float* %201, i32 6
  %917 = bitcast float* %916 to i32*
  %918 = getelementptr inbounds float, float* %204, i32 1
  %919 = bitcast float* %918 to i32*
  %920 = getelementptr inbounds float, float* %201, i32 5
  %921 = bitcast float* %920 to i32*
  %922 = inttoptr i32 %203 to i32*
  %923 = getelementptr inbounds float, float* %201, i32 4
  %924 = bitcast float* %923 to i32*
  %925 = getelementptr inbounds float, float* %201, i32 3
  %926 = bitcast float* %925 to i32*
  %927 = getelementptr inbounds float, float* %201, i32 2
  %928 = bitcast float* %927 to i32*
  %929 = getelementptr inbounds float, float* %204, i32 3
  %930 = bitcast float* %929 to i32*
  %931 = getelementptr inbounds float, float* %201, i32 7
  %932 = bitcast float* %931 to i32*
  %933 = getelementptr inbounds float, float* %204, i32 2
  %934 = bitcast float* %933 to i32*
  %935 = getelementptr inbounds float, float* %201, i32 6
  %936 = bitcast float* %935 to i32*
  %937 = getelementptr inbounds float, float* %204, i32 1
  %938 = bitcast float* %937 to i32*
  %939 = getelementptr inbounds float, float* %201, i32 5
  %940 = bitcast float* %939 to i32*
  %941 = inttoptr i32 %203 to i32*
  %942 = getelementptr inbounds float, float* %201, i32 4
  %943 = bitcast float* %942 to i32*
  br label %944

944:                                              ; preds = %233, %4718
  %945 = phi i64 [ 0, %233 ], [ %4719, %4718 ]
  %946 = load i64, i64* @block_idx, align 8, !tbaa !7
  %947 = trunc i64 %946 to i32
  %948 = mul nsw i32 %63, %947
  %949 = sext i32 %948 to i64
  %950 = add nsw i64 %945, %949
  %951 = sub nsw i64 %88, %945
  %952 = sub nsw i64 %951, %949
  %953 = icmp sgt i64 %952, 0
  %954 = select i1 %953, i64 %952, i64 0
  %955 = sub nsw i64 %950, %88
  %956 = icmp sgt i64 %955, 0
  %957 = select i1 %956, i64 %955, i64 0
  %958 = mul nsw i64 %957, %86
  %959 = icmp sgt i64 %952, %79
  %960 = select i1 %959, i64 %79, i64 %952
  %961 = icmp sgt i64 %960, 0
  %962 = select i1 %961, i64 %960, i64 0
  %963 = and i64 %962, 127
  %964 = icmp slt i64 %73, %963
  %965 = select i1 %964, i64 128, i64 %72
  %966 = select i1 %964, i64 0, i64 16
  %967 = select i1 %964, i64 %963, i64 %73
  %968 = select i1 %964, i64 %72, i64 128
  %969 = select i1 %964, i64 16, i64 0
  %970 = icmp sgt i64 %954, %81
  %971 = select i1 %970, i64 %954, i64 %81
  %972 = icmp slt i64 %954, %81
  %973 = select i1 %972, i64 %954, i64 %81
  %974 = select i1 %972, i64 %86, i64 64
  %975 = select i1 %972, i64 64, i64 %86
  %976 = sub nsw i64 %89, %945
  %977 = icmp slt i64 %952, %976
  %978 = select i1 %977, i64 %952, i64 %976
  %979 = icmp sgt i64 %978, %79
  %980 = select i1 %979, i64 %79, i64 %978
  %981 = icmp sgt i64 %980, 0
  %982 = select i1 %981, i64 %980, i64 0
  %983 = lshr i64 %982, 4
  %984 = and i64 %982, 9223372036854775792
  %985 = freeze i64 %982
  %986 = udiv i64 %985, 4080
  %987 = mul nuw nsw i64 %986, 4080
  %988 = mul i64 %176, %983
  %989 = add nuw nsw i64 %987, %988
  %990 = mul nsw i64 %986, 65280
  %991 = sdiv i64 %945, %79
  %992 = icmp sgt i64 %991, 0
  br i1 %992, label %993, label %999

993:                                              ; preds = %944
  call void @_Z12intrinsic_276pipe_tS_9EventType(i32 1, i32 4, i32 0)
  call void @_Z12intrinsic_276pipe_tS_9EventType(i32 5, i32 4, i32 0)
  call void @_Z12intrinsic_276pipe_tS_9EventType(i32 0, i32 4, i32 0)
  %994 = load i64, i64* @block_idx, align 8, !tbaa !7
  %995 = trunc i64 %994 to i32
  %996 = mul nsw i32 %63, %995
  %997 = sext i32 %996 to i64
  %998 = sub nsw i64 %951, %997
  br label %999

999:                                              ; preds = %993, %944
  %1000 = phi i64 [ %998, %993 ], [ %952, %944 ]
  %1001 = icmp sgt i64 %1000, %79
  br i1 %1001, label %1002, label %1026

1002:                                             ; preds = %999
  br i1 %240, label %1004, label %1003

1003:                                             ; preds = %1002
  br i1 %241, label %1012, label %1053

1004:                                             ; preds = %1002
  %1005 = trunc i64 %958 to i32
  %1006 = getelementptr inbounds float, float* %195, i32 %1005
  %1007 = bitcast float* %1006 to i8*
  %1008 = trunc i64 %950 to i32
  %1009 = mul i32 %60, %1008
  %1010 = getelementptr inbounds float, float* %0, i32 %1009
  %1011 = bitcast float* %1010 to i8*
  call void @_Z12intrinsic_15PvS_htttt(i8* %1007, i8* %1011, i8 zeroext 0, i16 zeroext %242, i16 zeroext %237, i16 zeroext %238, i16 zeroext 0)
  br label %1053

1012:                                             ; preds = %1003, %1012
  %1013 = phi i64 [ %1024, %1012 ], [ 0, %1003 ]
  %1014 = add nuw nsw i64 %1013, %957
  %1015 = mul nsw i64 %1014, %86
  %1016 = trunc i64 %1015 to i32
  %1017 = getelementptr inbounds float, float* %195, i32 %1016
  %1018 = bitcast float* %1017 to i8*
  %1019 = add nsw i64 %1013, %950
  %1020 = trunc i64 %1019 to i32
  %1021 = mul i32 %60, %1020
  %1022 = getelementptr inbounds float, float* %0, i32 %1021
  %1023 = bitcast float* %1022 to i8*
  call void @_Z12intrinsic_15PvS_htttt(i8* %1018, i8* %1023, i8 zeroext 0, i16 zeroext 1, i16 zeroext %237, i16 zeroext 0, i16 zeroext 0)
  %1024 = add nuw nsw i64 %1013, 1
  %1025 = icmp slt i64 %1024, %79
  br i1 %1025, label %1012, label %1053

1026:                                             ; preds = %999
  br i1 %953, label %1027, label %1053

1027:                                             ; preds = %1026
  %1028 = icmp slt i64 %954, 4096
  %1029 = and i1 %236, %1028
  br i1 %1029, label %1030, label %1039

1030:                                             ; preds = %1027
  %1031 = trunc i64 %958 to i32
  %1032 = getelementptr inbounds float, float* %195, i32 %1031
  %1033 = bitcast float* %1032 to i8*
  %1034 = trunc i64 %950 to i32
  %1035 = mul i32 %60, %1034
  %1036 = getelementptr inbounds float, float* %0, i32 %1035
  %1037 = bitcast float* %1036 to i8*
  %1038 = trunc i64 %954 to i16
  call void @_Z12intrinsic_15PvS_htttt(i8* %1033, i8* %1037, i8 zeroext 0, i16 zeroext %1038, i16 zeroext %237, i16 zeroext %238, i16 zeroext 0)
  br label %1053

1039:                                             ; preds = %1027, %1039
  %1040 = phi i64 [ %1051, %1039 ], [ 0, %1027 ]
  %1041 = add nuw nsw i64 %1040, %957
  %1042 = mul nsw i64 %1041, %86
  %1043 = trunc i64 %1042 to i32
  %1044 = getelementptr inbounds float, float* %195, i32 %1043
  %1045 = bitcast float* %1044 to i8*
  %1046 = add nsw i64 %1040, %950
  %1047 = trunc i64 %1046 to i32
  %1048 = mul i32 %60, %1047
  %1049 = getelementptr inbounds float, float* %0, i32 %1048
  %1050 = bitcast float* %1049 to i8*
  call void @_Z12intrinsic_15PvS_htttt(i8* %1045, i8* %1050, i8 zeroext 0, i16 zeroext 1, i16 zeroext %237, i16 zeroext 0, i16 zeroext 0)
  %1051 = add nuw nsw i64 %1040, 1
  %1052 = icmp ult i64 %1051, %954
  br i1 %1052, label %1039, label %1053

1053:                                             ; preds = %1039, %1012, %1003, %1026, %1030, %1004
  call void @_Z12intrinsic_266pipe_tS_9EventType(i32 4, i32 5, i32 0)
  call void @_Z12intrinsic_266pipe_tS_9EventType(i32 4, i32 1, i32 0)
  br i1 %992, label %1054, label %1055

1054:                                             ; preds = %1053
  call void @_Z12intrinsic_276pipe_tS_9EventType(i32 5, i32 1, i32 0)
  br label %1055

1055:                                             ; preds = %1054, %1053
  call void @_Z12intrinsic_276pipe_tS_9EventType(i32 4, i32 1, i32 0)
  %1056 = load i64, i64* @block_idx, align 8, !tbaa !7
  %1057 = trunc i64 %1056 to i32
  %1058 = mul nsw i32 %63, %1057
  %1059 = sext i32 %1058 to i64
  %1060 = sub nsw i64 %951, %1059
  %1061 = icmp sgt i64 %1060, %79
  br i1 %1061, label %1062, label %1106

1062:                                             ; preds = %1055
  br i1 %241, label %1063, label %1150

1063:                                             ; preds = %1062
  %1064 = add nsw i64 %958, %102
  %1065 = add nsw i64 %958, %105
  br label %1066

1066:                                             ; preds = %1063, %1091
  %1067 = phi i64 [ 0, %1063 ], [ %1104, %1091 ]
  call void @_Z11intrinsic_76pipe_t(i32 1)
  call void @_Z11intrinsic_1yy(i64 0, i64 -1)
  call void @_Z12intrinsic_28Pffxxxxx(float* %201, float 0xC7EFFFFFE0000000, i64 1, i64 1, i64 1, i64 8, i64 0)
  call void @_Z11intrinsic_76pipe_t(i32 1)
  br i1 %243, label %1068, label %1083

1068:                                             ; preds = %1066
  call void @_Z11intrinsic_76pipe_t(i32 1)
  br i1 %244, label %1069, label %1078

1069:                                             ; preds = %1068
  %1070 = mul nsw i64 %1067, %86
  %1071 = add nsw i64 %1070, %958
  %1072 = trunc i64 %1071 to i32
  %1073 = getelementptr inbounds float, float* %195, i32 %1072
  call void @_Z12intrinsic_16PfS_S_xxxxxxx(float* %201, float* %1073, float* %201, i64 255, i64 1, i64 1, i64 1, i64 0, i64 8, i64 0)
  br i1 %246, label %1083, label %1074

1074:                                             ; preds = %1069
  call void @_Z11intrinsic_76pipe_t(i32 1)
  %1075 = add nsw i64 %1064, %1070
  %1076 = trunc i64 %1075 to i32
  %1077 = getelementptr inbounds float, float* %195, i32 %1076
  call void @_Z12intrinsic_16PfS_S_xxxxxxx(float* %201, float* %1077, float* %201, i64 %101, i64 1, i64 1, i64 1, i64 0, i64 8, i64 0)
  br label %1083

1078:                                             ; preds = %1068
  call void @_Z11intrinsic_76pipe_t(i32 1)
  %1079 = mul nsw i64 %1067, %86
  %1080 = add nsw i64 %1079, %958
  %1081 = trunc i64 %1080 to i32
  %1082 = getelementptr inbounds float, float* %195, i32 %1081
  call void @_Z12intrinsic_16PfS_S_xxxxxxx(float* %201, float* %1082, float* %201, i64 %81, i64 1, i64 1, i64 1, i64 0, i64 8, i64 0)
  br label %1083

1083:                                             ; preds = %1069, %1078, %1074, %1066
  br i1 %247, label %1084, label %1089

1084:                                             ; preds = %1083
  call void @_Z11intrinsic_76pipe_t(i32 1)
  call void @_Z11intrinsic_1yy(i64 0, i64 %249)
  call void @_Z11intrinsic_76pipe_t(i32 1)
  %1085 = mul nsw i64 %1067, %86
  %1086 = add nsw i64 %1065, %1085
  %1087 = trunc i64 %1086 to i32
  %1088 = getelementptr inbounds float, float* %195, i32 %1087
  call void @_Z12intrinsic_16PfS_S_xxxxxxx(float* %201, float* %1088, float* %201, i64 1, i64 1, i64 1, i64 1, i64 0, i64 0, i64 0)
  br label %1089

1089:                                             ; preds = %1084, %1083
  br i1 %250, label %1090, label %1091

1090:                                             ; preds = %1089
  call void @_Z11intrinsic_1yy(i64 0, i64 4294967295)
  call void @_Z11intrinsic_76pipe_t(i32 1)
  call void @_Z12intrinsic_16PfS_S_xxxxxxx(float* %201, float* nonnull %254, float* %201, i64 1, i64 1, i64 1, i64 1, i64 8, i64 8, i64 8)
  call void @_Z11intrinsic_76pipe_t(i32 1)
  call void @_Z11intrinsic_1yy(i64 0, i64 65535)
  call void @_Z11intrinsic_76pipe_t(i32 1)
  call void @_Z12intrinsic_16PfS_S_xxxxxxx(float* %201, float* nonnull %255, float* %201, i64 1, i64 1, i64 1, i64 1, i64 8, i64 8, i64 8)
  call void @_Z11intrinsic_76pipe_t(i32 1)
  call void @_Z11intrinsic_1yy(i64 0, i64 255)
  call void @_Z11intrinsic_76pipe_t(i32 1)
  call void @_Z12intrinsic_16PfS_S_xxxxxxx(float* %201, float* nonnull %256, float* %201, i64 1, i64 1, i64 1, i64 1, i64 8, i64 8, i64 8)
  call void @_Z11intrinsic_76pipe_t(i32 1)
  br label %1091

1091:                                             ; preds = %1089, %1090
  call void @_Z12intrinsic_266pipe_tS_9EventType(i32 1, i32 0, i32 0)
  call void @_Z12intrinsic_276pipe_tS_9EventType(i32 1, i32 0, i32 0)
  %1092 = load i32, i32* %943, align 4, !tbaa !9
  store i32 %1092, i32* %941, align 4, !tbaa !9
  %1093 = load i32, i32* %940, align 4, !tbaa !9
  store i32 %1093, i32* %938, align 4, !tbaa !9
  %1094 = load i32, i32* %936, align 4, !tbaa !9
  store i32 %1094, i32* %934, align 4, !tbaa !9
  %1095 = load i32, i32* %932, align 4, !tbaa !9
  store i32 %1095, i32* %930, align 4, !tbaa !9
  call void @_Z11intrinsic_1yy(i64 0, i64 15)
  call void @_Z12intrinsic_266pipe_tS_9EventType(i32 0, i32 1, i32 0)
  call void @_Z12intrinsic_276pipe_tS_9EventType(i32 0, i32 1, i32 0)
  call void @_Z12intrinsic_16PfS_S_xxxxxxx(float* %201, float* %204, float* %201, i64 1, i64 1, i64 1, i64 1, i64 0, i64 0, i64 0)
  call void @_Z12intrinsic_266pipe_tS_9EventType(i32 1, i32 0, i32 0)
  call void @_Z12intrinsic_276pipe_tS_9EventType(i32 1, i32 0, i32 0)
  %1096 = load i32, i32* %928, align 4, !tbaa !9
  store i32 %1096, i32* %941, align 4, !tbaa !9
  %1097 = load i32, i32* %926, align 4, !tbaa !9
  store i32 %1097, i32* %938, align 4, !tbaa !9
  call void @_Z11intrinsic_1yy(i64 0, i64 3)
  call void @_Z12intrinsic_266pipe_tS_9EventType(i32 0, i32 1, i32 0)
  call void @_Z12intrinsic_276pipe_tS_9EventType(i32 0, i32 1, i32 0)
  call void @_Z12intrinsic_16PfS_S_xxxxxxx(float* %201, float* %204, float* %201, i64 1, i64 1, i64 1, i64 1, i64 0, i64 0, i64 0)
  call void @_Z12intrinsic_266pipe_tS_9EventType(i32 1, i32 0, i32 0)
  call void @_Z12intrinsic_276pipe_tS_9EventType(i32 1, i32 0, i32 0)
  %1098 = load i32, i32* %252, align 4, !tbaa !9
  store i32 %1098, i32* %253, align 4, !tbaa !9
  call void @_Z11intrinsic_1yy(i64 0, i64 1)
  call void @_Z12intrinsic_266pipe_tS_9EventType(i32 0, i32 1, i32 0)
  call void @_Z12intrinsic_276pipe_tS_9EventType(i32 0, i32 1, i32 0)
  call void @_Z12intrinsic_16PfS_S_xxxxxxx(float* %201, float* %204, float* %201, i64 1, i64 1, i64 1, i64 1, i64 0, i64 0, i64 0)
  call void @_Z12intrinsic_266pipe_tS_9EventType(i32 1, i32 0, i32 0)
  call void @_Z12intrinsic_276pipe_tS_9EventType(i32 1, i32 0, i32 0)
  %1099 = load i32, i32* %257, align 4, !tbaa !9
  %1100 = add nuw nsw i64 %1067, %957
  %1101 = trunc i64 %1100 to i32
  %1102 = getelementptr inbounds float, float* %198, i32 %1101
  %1103 = bitcast float* %1102 to i32*
  store i32 %1099, i32* %1103, align 4, !tbaa !9
  call void @_Z12intrinsic_266pipe_tS_9EventType(i32 0, i32 1, i32 0)
  call void @_Z12intrinsic_276pipe_tS_9EventType(i32 0, i32 1, i32 0)
  %1104 = add nuw nsw i64 %1067, 1
  %1105 = icmp slt i64 %1104, %79
  br i1 %1105, label %1066, label %1150

1106:                                             ; preds = %1055
  br i1 %953, label %1107, label %1150

1107:                                             ; preds = %1106
  %1108 = add nsw i64 %958, %102
  %1109 = add nsw i64 %958, %105
  br label %1110

1110:                                             ; preds = %1107, %1135
  %1111 = phi i64 [ 0, %1107 ], [ %1148, %1135 ]
  call void @_Z11intrinsic_76pipe_t(i32 1)
  call void @_Z11intrinsic_1yy(i64 0, i64 -1)
  call void @_Z12intrinsic_28Pffxxxxx(float* %201, float 0xC7EFFFFFE0000000, i64 1, i64 1, i64 1, i64 8, i64 0)
  call void @_Z11intrinsic_76pipe_t(i32 1)
  br i1 %243, label %1112, label %1127

1112:                                             ; preds = %1110
  call void @_Z11intrinsic_76pipe_t(i32 1)
  br i1 %244, label %1113, label %1122

1113:                                             ; preds = %1112
  %1114 = mul nsw i64 %1111, %86
  %1115 = add nsw i64 %1114, %958
  %1116 = trunc i64 %1115 to i32
  %1117 = getelementptr inbounds float, float* %195, i32 %1116
  call void @_Z12intrinsic_16PfS_S_xxxxxxx(float* %201, float* %1117, float* %201, i64 255, i64 1, i64 1, i64 1, i64 0, i64 8, i64 0)
  br i1 %246, label %1127, label %1118

1118:                                             ; preds = %1113
  call void @_Z11intrinsic_76pipe_t(i32 1)
  %1119 = add nsw i64 %1108, %1114
  %1120 = trunc i64 %1119 to i32
  %1121 = getelementptr inbounds float, float* %195, i32 %1120
  call void @_Z12intrinsic_16PfS_S_xxxxxxx(float* %201, float* %1121, float* %201, i64 %101, i64 1, i64 1, i64 1, i64 0, i64 8, i64 0)
  br label %1127

1122:                                             ; preds = %1112
  call void @_Z11intrinsic_76pipe_t(i32 1)
  %1123 = mul nsw i64 %1111, %86
  %1124 = add nsw i64 %1123, %958
  %1125 = trunc i64 %1124 to i32
  %1126 = getelementptr inbounds float, float* %195, i32 %1125
  call void @_Z12intrinsic_16PfS_S_xxxxxxx(float* %201, float* %1126, float* %201, i64 %81, i64 1, i64 1, i64 1, i64 0, i64 8, i64 0)
  br label %1127

1127:                                             ; preds = %1113, %1122, %1118, %1110
  br i1 %247, label %1128, label %1133

1128:                                             ; preds = %1127
  call void @_Z11intrinsic_76pipe_t(i32 1)
  call void @_Z11intrinsic_1yy(i64 0, i64 %249)
  call void @_Z11intrinsic_76pipe_t(i32 1)
  %1129 = mul nsw i64 %1111, %86
  %1130 = add nsw i64 %1109, %1129
  %1131 = trunc i64 %1130 to i32
  %1132 = getelementptr inbounds float, float* %195, i32 %1131
  call void @_Z12intrinsic_16PfS_S_xxxxxxx(float* %201, float* %1132, float* %201, i64 1, i64 1, i64 1, i64 1, i64 0, i64 0, i64 0)
  br label %1133

1133:                                             ; preds = %1128, %1127
  br i1 %250, label %1134, label %1135

1134:                                             ; preds = %1133
  call void @_Z11intrinsic_1yy(i64 0, i64 4294967295)
  call void @_Z11intrinsic_76pipe_t(i32 1)
  call void @_Z12intrinsic_16PfS_S_xxxxxxx(float* %201, float* nonnull %254, float* %201, i64 1, i64 1, i64 1, i64 1, i64 8, i64 8, i64 8)
  call void @_Z11intrinsic_76pipe_t(i32 1)
  call void @_Z11intrinsic_1yy(i64 0, i64 65535)
  call void @_Z11intrinsic_76pipe_t(i32 1)
  call void @_Z12intrinsic_16PfS_S_xxxxxxx(float* %201, float* nonnull %255, float* %201, i64 1, i64 1, i64 1, i64 1, i64 8, i64 8, i64 8)
  call void @_Z11intrinsic_76pipe_t(i32 1)
  call void @_Z11intrinsic_1yy(i64 0, i64 255)
  call void @_Z11intrinsic_76pipe_t(i32 1)
  call void @_Z12intrinsic_16PfS_S_xxxxxxx(float* %201, float* nonnull %256, float* %201, i64 1, i64 1, i64 1, i64 1, i64 8, i64 8, i64 8)
  call void @_Z11intrinsic_76pipe_t(i32 1)
  br label %1135

1135:                                             ; preds = %1133, %1134
  call void @_Z12intrinsic_266pipe_tS_9EventType(i32 1, i32 0, i32 0)
  call void @_Z12intrinsic_276pipe_tS_9EventType(i32 1, i32 0, i32 0)
  %1136 = load i32, i32* %924, align 4, !tbaa !9
  store i32 %1136, i32* %922, align 4, !tbaa !9
  %1137 = load i32, i32* %921, align 4, !tbaa !9
  store i32 %1137, i32* %919, align 4, !tbaa !9
  %1138 = load i32, i32* %917, align 4, !tbaa !9
  store i32 %1138, i32* %915, align 4, !tbaa !9
  %1139 = load i32, i32* %913, align 4, !tbaa !9
  store i32 %1139, i32* %911, align 4, !tbaa !9
  call void @_Z11intrinsic_1yy(i64 0, i64 15)
  call void @_Z12intrinsic_266pipe_tS_9EventType(i32 0, i32 1, i32 0)
  call void @_Z12intrinsic_276pipe_tS_9EventType(i32 0, i32 1, i32 0)
  call void @_Z12intrinsic_16PfS_S_xxxxxxx(float* %201, float* %204, float* %201, i64 1, i64 1, i64 1, i64 1, i64 0, i64 0, i64 0)
  call void @_Z12intrinsic_266pipe_tS_9EventType(i32 1, i32 0, i32 0)
  call void @_Z12intrinsic_276pipe_tS_9EventType(i32 1, i32 0, i32 0)
  %1140 = load i32, i32* %909, align 4, !tbaa !9
  store i32 %1140, i32* %922, align 4, !tbaa !9
  %1141 = load i32, i32* %907, align 4, !tbaa !9
  store i32 %1141, i32* %919, align 4, !tbaa !9
  call void @_Z11intrinsic_1yy(i64 0, i64 3)
  call void @_Z12intrinsic_266pipe_tS_9EventType(i32 0, i32 1, i32 0)
  call void @_Z12intrinsic_276pipe_tS_9EventType(i32 0, i32 1, i32 0)
  call void @_Z12intrinsic_16PfS_S_xxxxxxx(float* %201, float* %204, float* %201, i64 1, i64 1, i64 1, i64 1, i64 0, i64 0, i64 0)
  call void @_Z12intrinsic_266pipe_tS_9EventType(i32 1, i32 0, i32 0)
  call void @_Z12intrinsic_276pipe_tS_9EventType(i32 1, i32 0, i32 0)
  %1142 = load i32, i32* %252, align 4, !tbaa !9
  store i32 %1142, i32* %253, align 4, !tbaa !9
  call void @_Z11intrinsic_1yy(i64 0, i64 1)
  call void @_Z12intrinsic_266pipe_tS_9EventType(i32 0, i32 1, i32 0)
  call void @_Z12intrinsic_276pipe_tS_9EventType(i32 0, i32 1, i32 0)
  call void @_Z12intrinsic_16PfS_S_xxxxxxx(float* %201, float* %204, float* %201, i64 1, i64 1, i64 1, i64 1, i64 0, i64 0, i64 0)
  call void @_Z12intrinsic_266pipe_tS_9EventType(i32 1, i32 0, i32 0)
  call void @_Z12intrinsic_276pipe_tS_9EventType(i32 1, i32 0, i32 0)
  %1143 = load i32, i32* %257, align 4, !tbaa !9
  %1144 = add nuw nsw i64 %1111, %957
  %1145 = trunc i64 %1144 to i32
  %1146 = getelementptr inbounds float, float* %198, i32 %1145
  %1147 = bitcast float* %1146 to i32*
  store i32 %1143, i32* %1147, align 4, !tbaa !9
  call void @_Z12intrinsic_266pipe_tS_9EventType(i32 0, i32 1, i32 0)
  call void @_Z12intrinsic_276pipe_tS_9EventType(i32 0, i32 1, i32 0)
  %1148 = add nuw nsw i64 %1111, 1
  %1149 = icmp ult i64 %1148, %954
  br i1 %1149, label %1110, label %1150

1150:                                             ; preds = %1135, %1091, %1062, %1106
  br i1 %992, label %1151, label %1152

1151:                                             ; preds = %1150
  call void @_Z12intrinsic_276pipe_tS_9EventType(i32 1, i32 0, i32 1)
  br label %1152

1152:                                             ; preds = %1151, %1150
  br i1 %961, label %1153, label %1430

1153:                                             ; preds = %1152
  call void @_Z11intrinsic_1yy(i64 0, i64 65535)
  call void @_Z12intrinsic_28Pssxxxxx(i16* %210, i16 signext 0, i64 1, i64 0, i64 0, i64 0, i64 0)
  %1154 = lshr i64 %962, 7
  %1155 = icmp eq i64 %1154, 0
  br i1 %1155, label %1156, label %1158

1156:                                             ; preds = %1255, %1153
  %1157 = icmp eq i64 %963, 0
  br i1 %1157, label %1430, label %1258

1158:                                             ; preds = %1153, %1255
  %1159 = phi i64 [ %1256, %1255 ], [ 0, %1153 ]
  %1160 = trunc i64 %1159 to i32
  %1161 = shl i32 %1160, 8
  %1162 = getelementptr inbounds i16, i16* %259, i32 %1161
  call void @_Z12intrinsic_17PtS_(i16* %258, i16* %1162)
  call void @_Z11intrinsic_1yy(i64 -1, i64 -1)
  call void @_Z11intrinsic_76pipe_t(i32 1)
  call void @_Z12intrinsic_18PsS_S_xxxxxxx(i16* %260, i16* %258, i16* %210, i64 8, i64 1, i64 1, i64 0, i64 16, i64 0, i64 0)
  call void @_Z12intrinsic_18PsS_S_xxxxxxx(i16* nonnull %261, i16* nonnull %262, i16* %210, i64 8, i64 1, i64 1, i64 0, i64 16, i64 0, i64 0)
  call void @llvm.lifetime.start.p0i8(i64 64, i8* nonnull %263) #4
  store i64 %265, i64* %264, align 8, !tbaa !7
  store i64 %268, i64* %266, align 8, !tbaa !7
  store i64 %272, i64* %269, align 8, !tbaa !7
  store i64 %276, i64* %273, align 8, !tbaa !7
  store i64 %280, i64* %277, align 8, !tbaa !7
  store i64 %284, i64* %281, align 8, !tbaa !7
  store i64 %288, i64* %285, align 8, !tbaa !7
  store i64 %292, i64* %289, align 8, !tbaa !7
  call void @_Z12intrinsic_2510ub_addr8_tPy(i32 0, i64* nonnull %264)
  call void @llvm.lifetime.start.p0i8(i64 64, i8* nonnull %293) #4
  store i64 %297, i64* %294, align 8, !tbaa !7
  store i64 %301, i64* %298, align 8, !tbaa !7
  store i64 %305, i64* %302, align 8, !tbaa !7
  store i64 %309, i64* %306, align 8, !tbaa !7
  store i64 %313, i64* %310, align 8, !tbaa !7
  store i64 %317, i64* %314, align 8, !tbaa !7
  store i64 %321, i64* %318, align 8, !tbaa !7
  store i64 %325, i64* %322, align 8, !tbaa !7
  call void @_Z12intrinsic_2510ub_addr8_tPy(i32 1, i64* nonnull %294)
  call void @llvm.lifetime.start.p0i8(i64 64, i8* nonnull %326) #4
  store i64 %328, i64* %327, align 8, !tbaa !7
  store i64 %332, i64* %329, align 8, !tbaa !7
  store i64 %336, i64* %333, align 8, !tbaa !7
  store i64 %340, i64* %337, align 8, !tbaa !7
  store i64 %344, i64* %341, align 8, !tbaa !7
  store i64 %348, i64* %345, align 8, !tbaa !7
  store i64 %352, i64* %349, align 8, !tbaa !7
  store i64 %356, i64* %353, align 8, !tbaa !7
  call void @_Z12intrinsic_2510ub_addr8_tPy(i32 2, i64* nonnull %327)
  call void @llvm.lifetime.start.p0i8(i64 64, i8* nonnull %357) #4
  store i64 %361, i64* %358, align 8, !tbaa !7
  store i64 %365, i64* %362, align 8, !tbaa !7
  store i64 %369, i64* %366, align 8, !tbaa !7
  store i64 %373, i64* %370, align 8, !tbaa !7
  store i64 %377, i64* %374, align 8, !tbaa !7
  store i64 %381, i64* %378, align 8, !tbaa !7
  store i64 %385, i64* %382, align 8, !tbaa !7
  store i64 %389, i64* %386, align 8, !tbaa !7
  call void @_Z12intrinsic_2510ub_addr8_tPy(i32 3, i64* nonnull %358)
  call void @_Z11intrinsic_76pipe_t(i32 1)
  call void @_Z12intrinsic_1910ub_addr8_tS_xxx(i32 0, i32 2, i64 8, i64 1, i64 2)
  call void @_Z11intrinsic_76pipe_t(i32 1)
  br i1 %390, label %1163, label %1247

1163:                                             ; preds = %1158
  %1164 = mul nsw i64 %1159, %71
  %1165 = shl nsw i64 %1164, 11
  br i1 %401, label %1166, label %1187

1166:                                             ; preds = %1163, %1172
  %1167 = phi i64 [ %1173, %1172 ], [ 0, %1163 ]
  br i1 %422, label %1168, label %1172

1168:                                             ; preds = %1166
  %1169 = mul nsw i64 %1167, %406
  %1170 = add nsw i64 %1169, %1165
  %1171 = mul nuw nsw i64 %1167, %180
  br label %1175

1172:                                             ; preds = %1175, %1166
  %1173 = add nuw nsw i64 %1167, 1
  %1174 = icmp slt i64 %1173, %107
  br i1 %1174, label %1166, label %1218

1175:                                             ; preds = %1168, %1175
  %1176 = phi i64 [ 0, %1168 ], [ %1185, %1175 ]
  call void @_Z11intrinsic_76pipe_t(i32 1)
  %1177 = mul nsw i64 %1176, %424
  %1178 = add nsw i64 %1170, %1177
  %1179 = trunc i64 %1178 to i32
  %1180 = getelementptr inbounds i16, i16* %400, i32 %1179
  %1181 = mul nuw nsw i64 %1176, %183
  %1182 = add nuw nsw i64 %1181, %1171
  %1183 = trunc i64 %1182 to i32
  %1184 = getelementptr inbounds i16, i16* %258, i32 %1183
  call void @_Z12intrinsic_18PsS_S_xxxxxxx(i16* %1180, i16* %1184, i16* %210, i64 1, i64 1, i64 0, i64 0, i64 0, i64 0, i64 0)
  %1185 = add nuw nsw i64 %1176, 1
  %1186 = icmp slt i64 %1185, %181
  br i1 %1186, label %1175, label %1172

1187:                                             ; preds = %1163
  br i1 %402, label %1188, label %1207

1188:                                             ; preds = %1187, %1204
  %1189 = phi i64 [ %1205, %1204 ], [ 0, %1187 ]
  %1190 = mul nsw i64 %1189, %406
  %1191 = add nsw i64 %1190, %1165
  %1192 = trunc i64 %1191 to i32
  %1193 = getelementptr inbounds i16, i16* %400, i32 %1192
  %1194 = mul nuw nsw i64 %1189, %180
  %1195 = trunc i64 %1194 to i32
  %1196 = getelementptr inbounds i16, i16* %258, i32 %1195
  call void @_Z12intrinsic_18PsS_S_xxxxxxx(i16* %1193, i16* %1196, i16* %210, i64 255, i64 1, i64 0, i64 0, i64 %407, i64 %408, i64 0)
  br i1 %413, label %1204, label %1197

1197:                                             ; preds = %1188
  %1198 = add i64 %1191, %417
  %1199 = trunc i64 %1198 to i32
  %1200 = getelementptr inbounds i16, i16* %400, i32 %1199
  %1201 = add nsw i64 %1194, %421
  %1202 = trunc i64 %1201 to i32
  %1203 = getelementptr inbounds i16, i16* %258, i32 %1202
  call void @_Z12intrinsic_18PsS_S_xxxxxxx(i16* %1200, i16* %1203, i16* %210, i64 %412, i64 1, i64 0, i64 0, i64 %407, i64 %408, i64 0)
  br label %1204

1204:                                             ; preds = %1188, %1197
  %1205 = add nuw nsw i64 %1189, 1
  %1206 = icmp slt i64 %1205, %107
  br i1 %1206, label %1188, label %1218

1207:                                             ; preds = %1187, %1207
  %1208 = phi i64 [ %1216, %1207 ], [ 0, %1187 ]
  %1209 = mul nsw i64 %1208, %406
  %1210 = add nsw i64 %1209, %1165
  %1211 = trunc i64 %1210 to i32
  %1212 = getelementptr inbounds i16, i16* %400, i32 %1211
  %1213 = mul nuw nsw i64 %1208, %180
  %1214 = trunc i64 %1213 to i32
  %1215 = getelementptr inbounds i16, i16* %258, i32 %1214
  call void @_Z12intrinsic_18PsS_S_xxxxxxx(i16* %1212, i16* %1215, i16* %210, i64 %181, i64 1, i64 0, i64 0, i64 %407, i64 %408, i64 0)
  %1216 = add nuw nsw i64 %1208, 1
  %1217 = icmp slt i64 %1216, %107
  br i1 %1217, label %1207, label %1218

1218:                                             ; preds = %1207, %1204, %1172
  br i1 %426, label %1255, label %1219

1219:                                             ; preds = %1218
  br i1 %427, label %1220, label %1238

1220:                                             ; preds = %1219
  %1221 = mul nsw i64 %1159, %71
  %1222 = shl nsw i64 %1221, 11
  %1223 = add nsw i64 %1222, %114
  br label %1224

1224:                                             ; preds = %1220, %1228
  %1225 = phi i64 [ 0, %1220 ], [ %1236, %1228 ]
  call void @_Z11intrinsic_76pipe_t(i32 1)
  br i1 %428, label %1226, label %1227

1226:                                             ; preds = %1224
  call void @_Z11intrinsic_1yy(i64 %436, i64 -1)
  br label %1228

1227:                                             ; preds = %1224
  call void @_Z11intrinsic_1yy(i64 0, i64 %432)
  br label %1228

1228:                                             ; preds = %1227, %1226
  %1229 = mul nsw i64 %1225, %72
  %1230 = add nsw i64 %1223, %1229
  %1231 = trunc i64 %1230 to i32
  %1232 = getelementptr inbounds i16, i16* %400, i32 %1231
  %1233 = trunc i64 %1225 to i32
  %1234 = shl nuw nsw i32 %1233, 4
  %1235 = getelementptr inbounds i16, i16* %258, i32 %1234
  call void @_Z12intrinsic_18PsS_S_xxxxxxx(i16* %1232, i16* %1235, i16* %210, i64 1, i64 1, i64 0, i64 0, i64 0, i64 0, i64 0)
  %1236 = add nuw nsw i64 %1225, 1
  %1237 = icmp ult i64 %1225, 127
  br i1 %1237, label %1224, label %1255

1238:                                             ; preds = %1219
  br i1 %428, label %1239, label %1240

1239:                                             ; preds = %1238
  call void @_Z11intrinsic_1yy(i64 %436, i64 -1)
  br label %1241

1240:                                             ; preds = %1238
  call void @_Z11intrinsic_1yy(i64 0, i64 %432)
  br label %1241

1241:                                             ; preds = %1240, %1239
  %1242 = mul nsw i64 %1159, %71
  %1243 = shl nsw i64 %1242, 11
  %1244 = add nsw i64 %1243, %114
  %1245 = trunc i64 %1244 to i32
  %1246 = getelementptr inbounds i16, i16* %400, i32 %1245
  call void @_Z12intrinsic_18PsS_S_xxxxxxx(i16* %1246, i16* %258, i16* %210, i64 128, i64 1, i64 0, i64 0, i64 %71, i64 1, i64 0)
  br label %1255

1247:                                             ; preds = %1158
  br i1 %391, label %1248, label %1249

1248:                                             ; preds = %1247
  call void @_Z11intrinsic_1yy(i64 %399, i64 -1)
  br label %1250

1249:                                             ; preds = %1247
  call void @_Z11intrinsic_1yy(i64 0, i64 %395)
  br label %1250

1250:                                             ; preds = %1249, %1248
  %1251 = mul nsw i64 %1159, %71
  %1252 = trunc i64 %1251 to i32
  %1253 = shl i32 %1252, 11
  %1254 = getelementptr inbounds i16, i16* %400, i32 %1253
  call void @_Z12intrinsic_18PsS_S_xxxxxxx(i16* %1254, i16* %258, i16* %210, i64 128, i64 1, i64 0, i64 0, i64 %71, i64 1, i64 0)
  br label %1255

1255:                                             ; preds = %1228, %1218, %1241, %1250
  call void @llvm.lifetime.end.p0i8(i64 64, i8* nonnull %357) #4
  call void @llvm.lifetime.end.p0i8(i64 64, i8* nonnull %326) #4
  call void @llvm.lifetime.end.p0i8(i64 64, i8* nonnull %293) #4
  call void @llvm.lifetime.end.p0i8(i64 64, i8* nonnull %263) #4
  %1256 = add nuw nsw i64 %1159, 1
  %1257 = icmp ult i64 %1256, %1154
  br i1 %1257, label %1158, label %1156

1258:                                             ; preds = %1156
  %1259 = icmp ult i64 %963, 33
  br i1 %1259, label %1260, label %1303

1260:                                             ; preds = %1258
  call void @_Z12intrinsic_266pipe_tS_9EventType(i32 4, i32 0, i32 0)
  call void @_Z12intrinsic_276pipe_tS_9EventType(i32 4, i32 0, i32 0)
  call void @_Z12intrinsic_266pipe_tS_9EventType(i32 1, i32 0, i32 0)
  call void @_Z12intrinsic_276pipe_tS_9EventType(i32 1, i32 0, i32 0)
  br i1 %403, label %1261, label %1288

1261:                                             ; preds = %1260
  call void @_Z11intrinsic_1yy(i64 -1, i64 -1)
  %1262 = and i64 %962, 9223372036854775680
  br label %1263

1263:                                             ; preds = %1261, %1285
  %1264 = phi i64 [ 0, %1261 ], [ %1286, %1285 ]
  %1265 = add nuw nsw i64 %1264, %1262
  %1266 = trunc i64 %1265 to i32
  %1267 = getelementptr inbounds float, float* %198, i32 %1266
  %1268 = load float, float* %1267, align 4, !tbaa !9
  br i1 %473, label %1269, label %1271

1269:                                             ; preds = %1263
  %1270 = mul nsw i64 %1265, %86
  br label %1272

1271:                                             ; preds = %1272, %1263
  br i1 %474, label %1285, label %1280

1272:                                             ; preds = %1269, %1272
  %1273 = phi i64 [ 0, %1269 ], [ %1278, %1272 ]
  %1274 = mul nuw nsw i64 %1273, 16320
  %1275 = add nsw i64 %1274, %1270
  %1276 = trunc i64 %1275 to i32
  %1277 = getelementptr inbounds float, float* %207, i32 %1276
  call void @_Z12intrinsic_28Pffxxxxx(float* %1277, float %1268, i64 255, i64 1, i64 0, i64 8, i64 0)
  %1278 = add nuw nsw i64 %1273, 1
  %1279 = icmp slt i64 %1278, %120
  br i1 %1279, label %1272, label %1271

1280:                                             ; preds = %1271
  %1281 = mul nsw i64 %1265, %86
  %1282 = add nsw i64 %1281, %124
  %1283 = trunc i64 %1282 to i32
  %1284 = getelementptr inbounds float, float* %207, i32 %1283
  call void @_Z12intrinsic_28Pffxxxxx(float* %1284, float %1268, i64 %123, i64 1, i64 0, i64 8, i64 0)
  br label %1285

1285:                                             ; preds = %1271, %1280
  %1286 = add nuw nsw i64 %1264, 1
  %1287 = icmp ult i64 %1286, %963
  br i1 %1287, label %1263, label %1288

1288:                                             ; preds = %1285, %1260
  br i1 %475, label %1430, label %1289

1289:                                             ; preds = %1288
  call void @_Z11intrinsic_1yy(i64 0, i64 %477)
  %1290 = and i64 %962, 9223372036854775680
  br label %1291

1291:                                             ; preds = %1289, %1291
  %1292 = phi i64 [ 0, %1289 ], [ %1301, %1291 ]
  %1293 = add nuw nsw i64 %1292, %1290
  %1294 = trunc i64 %1293 to i32
  %1295 = getelementptr inbounds float, float* %198, i32 %1294
  %1296 = load float, float* %1295, align 4, !tbaa !9
  %1297 = mul nsw i64 %1293, %86
  %1298 = add nsw i64 %1297, %74
  %1299 = trunc i64 %1298 to i32
  %1300 = getelementptr inbounds float, float* %207, i32 %1299
  call void @_Z12intrinsic_28Pffxxxxx(float* %1300, float %1296, i64 1, i64 1, i64 0, i64 8, i64 0)
  %1301 = add nuw nsw i64 %1292, 1
  %1302 = icmp ult i64 %1301, %963
  br i1 %1302, label %1291, label %1430

1303:                                             ; preds = %1258
  %1304 = trunc i64 %962 to i32
  %1305 = and i32 %1304, -128
  %1306 = getelementptr inbounds float, float* %198, i32 %1305
  %1307 = add nuw nsw i64 %963, 7
  %1308 = lshr i64 %1307, 3
  call void @_Z12intrinsic_29PfS_xxxxx(float* %213, float* %1306, i64 0, i64 1, i64 %1308, i64 0, i64 0)
  call void @_Z11intrinsic_76pipe_t(i32 1)
  call void @_Z12intrinsic_17PtS_(i16* %258, i16* %260)
  call void @_Z11intrinsic_1yy(i64 -1, i64 -1)
  call void @_Z11intrinsic_76pipe_t(i32 1)
  call void @_Z12intrinsic_18PsS_S_xxxxxxx(i16* %260, i16* %258, i16* %210, i64 8, i64 1, i64 1, i64 0, i64 16, i64 0, i64 0)
  call void @_Z12intrinsic_18PsS_S_xxxxxxx(i16* nonnull %261, i16* nonnull %262, i16* %210, i64 8, i64 1, i64 1, i64 0, i64 16, i64 0, i64 0)
  call void @llvm.lifetime.start.p0i8(i64 64, i8* nonnull %437) #4
  store i64 %265, i64* %438, align 8, !tbaa !7
  store i64 %268, i64* %439, align 8, !tbaa !7
  store i64 %272, i64* %440, align 8, !tbaa !7
  store i64 %276, i64* %441, align 8, !tbaa !7
  store i64 %280, i64* %442, align 8, !tbaa !7
  store i64 %284, i64* %443, align 8, !tbaa !7
  store i64 %288, i64* %444, align 8, !tbaa !7
  store i64 %292, i64* %445, align 8, !tbaa !7
  call void @_Z12intrinsic_2510ub_addr8_tPy(i32 0, i64* nonnull %438)
  call void @llvm.lifetime.start.p0i8(i64 64, i8* nonnull %446) #4
  store i64 %297, i64* %447, align 8, !tbaa !7
  store i64 %301, i64* %448, align 8, !tbaa !7
  store i64 %305, i64* %449, align 8, !tbaa !7
  store i64 %309, i64* %450, align 8, !tbaa !7
  store i64 %313, i64* %451, align 8, !tbaa !7
  store i64 %317, i64* %452, align 8, !tbaa !7
  store i64 %321, i64* %453, align 8, !tbaa !7
  store i64 %325, i64* %454, align 8, !tbaa !7
  call void @_Z12intrinsic_2510ub_addr8_tPy(i32 1, i64* nonnull %447)
  call void @llvm.lifetime.start.p0i8(i64 64, i8* nonnull %455) #4
  store i64 %328, i64* %456, align 8, !tbaa !7
  store i64 %332, i64* %457, align 8, !tbaa !7
  store i64 %336, i64* %458, align 8, !tbaa !7
  store i64 %340, i64* %459, align 8, !tbaa !7
  store i64 %344, i64* %460, align 8, !tbaa !7
  store i64 %348, i64* %461, align 8, !tbaa !7
  store i64 %352, i64* %462, align 8, !tbaa !7
  store i64 %356, i64* %463, align 8, !tbaa !7
  call void @_Z12intrinsic_2510ub_addr8_tPy(i32 2, i64* nonnull %456)
  call void @llvm.lifetime.start.p0i8(i64 64, i8* nonnull %464) #4
  store i64 %361, i64* %465, align 8, !tbaa !7
  store i64 %365, i64* %466, align 8, !tbaa !7
  store i64 %369, i64* %467, align 8, !tbaa !7
  store i64 %373, i64* %468, align 8, !tbaa !7
  store i64 %377, i64* %469, align 8, !tbaa !7
  store i64 %381, i64* %470, align 8, !tbaa !7
  store i64 %385, i64* %471, align 8, !tbaa !7
  store i64 %389, i64* %472, align 8, !tbaa !7
  call void @_Z12intrinsic_2510ub_addr8_tPy(i32 3, i64* nonnull %465)
  call void @_Z11intrinsic_76pipe_t(i32 1)
  call void @_Z12intrinsic_1910ub_addr8_tS_xxx(i32 0, i32 2, i64 8, i64 1, i64 2)
  call void @_Z11intrinsic_76pipe_t(i32 1)
  br i1 %390, label %1309, label %1421

1309:                                             ; preds = %1303
  %1310 = icmp sgt i64 %968, 4080
  br i1 %1310, label %1311, label %1341

1311:                                             ; preds = %1309
  %1312 = select i1 %964, i64 %73, i64 %963
  %1313 = icmp sgt i64 %967, 0
  %1314 = mul nsw i64 %1154, %71
  %1315 = shl nsw i64 %1314, 11
  %1316 = shl i64 %965, 32
  %1317 = ashr exact i64 %1316, 32
  %1318 = shl i64 %968, 32
  %1319 = ashr exact i64 %1318, 32
  br label %1320

1320:                                             ; preds = %1311, %1326
  %1321 = phi i64 [ 0, %1311 ], [ %1327, %1326 ]
  br i1 %1313, label %1322, label %1326

1322:                                             ; preds = %1320
  %1323 = mul nsw i64 %1321, %1317
  %1324 = add nsw i64 %1323, %1315
  %1325 = mul nuw nsw i64 %1321, %966
  br label %1329

1326:                                             ; preds = %1329, %1320
  %1327 = add nuw nsw i64 %1321, 1
  %1328 = icmp slt i64 %1327, %1312
  br i1 %1328, label %1320, label %1392

1329:                                             ; preds = %1322, %1329
  %1330 = phi i64 [ 0, %1322 ], [ %1339, %1329 ]
  call void @_Z11intrinsic_76pipe_t(i32 1)
  %1331 = mul nsw i64 %1330, %1319
  %1332 = add nsw i64 %1324, %1331
  %1333 = trunc i64 %1332 to i32
  %1334 = getelementptr inbounds i16, i16* %400, i32 %1333
  %1335 = mul nuw nsw i64 %1330, %969
  %1336 = add nuw nsw i64 %1335, %1325
  %1337 = trunc i64 %1336 to i32
  %1338 = getelementptr inbounds i16, i16* %258, i32 %1337
  call void @_Z12intrinsic_18PsS_S_xxxxxxx(i16* %1334, i16* %1338, i16* %210, i64 1, i64 1, i64 0, i64 0, i64 0, i64 0, i64 0)
  %1339 = add nuw nsw i64 %1330, 1
  %1340 = icmp ult i64 %1339, %967
  br i1 %1340, label %1329, label %1326

1341:                                             ; preds = %1309
  %1342 = icmp sgt i64 %967, 255
  %1343 = select i1 %964, i64 %73, i64 %963
  %1344 = mul nsw i64 %1154, %71
  %1345 = shl nsw i64 %1344, 11
  %1346 = shl i64 %965, 32
  %1347 = ashr exact i64 %1346, 32
  %1348 = sdiv i64 %968, 16
  %1349 = lshr exact i64 %969, 4
  br i1 %1342, label %1350, label %1381

1350:                                             ; preds = %1341
  %1351 = urem i64 %967, 255
  %1352 = icmp eq i64 %1351, 0
  %1353 = trunc i64 %968 to i32
  %1354 = mul i32 %1353, 255
  %1355 = zext i32 %1354 to i64
  %1356 = udiv i64 %967, 255
  %1357 = mul i64 %1356, %1355
  %1358 = trunc i64 %969 to i32
  %1359 = mul nuw nsw i32 %1358, 255
  %1360 = zext i32 %1359 to i64
  %1361 = mul nsw i64 %1356, %1360
  br label %1362

1362:                                             ; preds = %1350, %1378
  %1363 = phi i64 [ 0, %1350 ], [ %1379, %1378 ]
  %1364 = mul nsw i64 %1363, %1347
  %1365 = add nsw i64 %1364, %1345
  %1366 = trunc i64 %1365 to i32
  %1367 = getelementptr inbounds i16, i16* %400, i32 %1366
  %1368 = mul nuw nsw i64 %1363, %966
  %1369 = trunc i64 %1368 to i32
  %1370 = getelementptr inbounds i16, i16* %258, i32 %1369
  call void @_Z12intrinsic_18PsS_S_xxxxxxx(i16* %1367, i16* %1370, i16* %210, i64 255, i64 1, i64 0, i64 0, i64 %1348, i64 %1349, i64 0)
  br i1 %1352, label %1378, label %1371

1371:                                             ; preds = %1362
  %1372 = add i64 %1365, %1357
  %1373 = trunc i64 %1372 to i32
  %1374 = getelementptr inbounds i16, i16* %400, i32 %1373
  %1375 = add nuw nsw i64 %1368, %1361
  %1376 = trunc i64 %1375 to i32
  %1377 = getelementptr inbounds i16, i16* %258, i32 %1376
  call void @_Z12intrinsic_18PsS_S_xxxxxxx(i16* %1374, i16* %1377, i16* %210, i64 %1351, i64 1, i64 0, i64 0, i64 %1348, i64 %1349, i64 0)
  br label %1378

1378:                                             ; preds = %1362, %1371
  %1379 = add nuw nsw i64 %1363, 1
  %1380 = icmp slt i64 %1379, %1343
  br i1 %1380, label %1362, label %1392

1381:                                             ; preds = %1341, %1381
  %1382 = phi i64 [ %1390, %1381 ], [ 0, %1341 ]
  %1383 = mul nsw i64 %1382, %1347
  %1384 = add nsw i64 %1383, %1345
  %1385 = trunc i64 %1384 to i32
  %1386 = getelementptr inbounds i16, i16* %400, i32 %1385
  %1387 = mul nuw nsw i64 %1382, %966
  %1388 = trunc i64 %1387 to i32
  %1389 = getelementptr inbounds i16, i16* %258, i32 %1388
  call void @_Z12intrinsic_18PsS_S_xxxxxxx(i16* %1386, i16* %1389, i16* %210, i64 %967, i64 1, i64 0, i64 0, i64 %1348, i64 %1349, i64 0)
  %1390 = add nuw nsw i64 %1382, 1
  %1391 = icmp slt i64 %1390, %1343
  br i1 %1391, label %1381, label %1392

1392:                                             ; preds = %1381, %1378, %1326
  br i1 %426, label %1429, label %1393

1393:                                             ; preds = %1392
  br i1 %427, label %1394, label %1412

1394:                                             ; preds = %1393
  %1395 = mul nsw i64 %1154, %71
  %1396 = shl nsw i64 %1395, 11
  %1397 = add nsw i64 %1396, %114
  br label %1398

1398:                                             ; preds = %1394, %1402
  %1399 = phi i64 [ 0, %1394 ], [ %1410, %1402 ]
  call void @_Z11intrinsic_76pipe_t(i32 1)
  br i1 %428, label %1400, label %1401

1400:                                             ; preds = %1398
  call void @_Z11intrinsic_1yy(i64 %436, i64 -1)
  br label %1402

1401:                                             ; preds = %1398
  call void @_Z11intrinsic_1yy(i64 0, i64 %432)
  br label %1402

1402:                                             ; preds = %1401, %1400
  %1403 = mul nsw i64 %1399, %72
  %1404 = add nsw i64 %1397, %1403
  %1405 = trunc i64 %1404 to i32
  %1406 = getelementptr inbounds i16, i16* %400, i32 %1405
  %1407 = trunc i64 %1399 to i32
  %1408 = shl i32 %1407, 4
  %1409 = getelementptr inbounds i16, i16* %258, i32 %1408
  call void @_Z12intrinsic_18PsS_S_xxxxxxx(i16* %1406, i16* %1409, i16* %210, i64 1, i64 1, i64 0, i64 0, i64 0, i64 0, i64 0)
  %1410 = add nuw nsw i64 %1399, 1
  %1411 = icmp ult i64 %1410, %963
  br i1 %1411, label %1398, label %1429

1412:                                             ; preds = %1393
  br i1 %428, label %1413, label %1414

1413:                                             ; preds = %1412
  call void @_Z11intrinsic_1yy(i64 %436, i64 -1)
  br label %1415

1414:                                             ; preds = %1412
  call void @_Z11intrinsic_1yy(i64 0, i64 %432)
  br label %1415

1415:                                             ; preds = %1414, %1413
  %1416 = mul nsw i64 %1154, %71
  %1417 = shl nsw i64 %1416, 11
  %1418 = add nsw i64 %1417, %114
  %1419 = trunc i64 %1418 to i32
  %1420 = getelementptr inbounds i16, i16* %400, i32 %1419
  call void @_Z12intrinsic_18PsS_S_xxxxxxx(i16* %1420, i16* %258, i16* %210, i64 %963, i64 1, i64 0, i64 0, i64 %71, i64 1, i64 0)
  br label %1429

1421:                                             ; preds = %1303
  br i1 %391, label %1422, label %1423

1422:                                             ; preds = %1421
  call void @_Z11intrinsic_1yy(i64 %399, i64 -1)
  br label %1424

1423:                                             ; preds = %1421
  call void @_Z11intrinsic_1yy(i64 0, i64 %395)
  br label %1424

1424:                                             ; preds = %1423, %1422
  %1425 = mul nsw i64 %1154, %71
  %1426 = trunc i64 %1425 to i32
  %1427 = shl i32 %1426, 11
  %1428 = getelementptr inbounds i16, i16* %400, i32 %1427
  call void @_Z12intrinsic_18PsS_S_xxxxxxx(i16* %1428, i16* %258, i16* %210, i64 %963, i64 1, i64 0, i64 0, i64 %71, i64 1, i64 0)
  br label %1429

1429:                                             ; preds = %1402, %1392, %1415, %1424
  call void @llvm.lifetime.end.p0i8(i64 64, i8* nonnull %464) #4
  call void @llvm.lifetime.end.p0i8(i64 64, i8* nonnull %455) #4
  call void @llvm.lifetime.end.p0i8(i64 64, i8* nonnull %446) #4
  call void @llvm.lifetime.end.p0i8(i64 64, i8* nonnull %437) #4
  br label %1430

1430:                                             ; preds = %1291, %1288, %1156, %1429, %1152
  call void @_Z12intrinsic_266pipe_tS_9EventType(i32 0, i32 1, i32 0)
  %1431 = load i64, i64* @block_idx, align 8, !tbaa !7
  %1432 = trunc i64 %1431 to i32
  %1433 = mul nsw i32 %63, %1432
  %1434 = sext i32 %1433 to i64
  %1435 = sub nsw i64 %951, %1434
  %1436 = icmp sgt i64 %1435, %79
  br i1 %1436, label %1437, label %1551

1437:                                             ; preds = %1430
  call void @_Z11intrinsic_76pipe_t(i32 1)
  br i1 %390, label %1438, label %1531

1438:                                             ; preds = %1437
  call void @_Z11intrinsic_1yy(i64 0, i64 -1)
  br i1 %484, label %1439, label %1457

1439:                                             ; preds = %1438
  br i1 %486, label %1440, label %1495

1440:                                             ; preds = %1439, %1445
  %1441 = phi i64 [ %1446, %1445 ], [ 0, %1439 ]
  call void @_Z11intrinsic_76pipe_t(i32 1)
  br i1 %497, label %1442, label %1445

1442:                                             ; preds = %1440
  %1443 = mul nsw i64 %1441, %489
  %1444 = add nsw i64 %1443, %958
  br label %1448

1445:                                             ; preds = %1448, %1440
  %1446 = add nuw nsw i64 %1441, 1
  %1447 = icmp slt i64 %1446, %85
  br i1 %1447, label %1440, label %1495

1448:                                             ; preds = %1442, %1448
  %1449 = phi i64 [ 0, %1442 ], [ %1455, %1448 ]
  call void @_Z11intrinsic_76pipe_t(i32 1)
  %1450 = mul nsw i64 %1449, %499
  %1451 = add nsw i64 %1444, %1450
  %1452 = trunc i64 %1451 to i32
  %1453 = getelementptr inbounds float, float* %195, i32 %1452
  %1454 = getelementptr inbounds float, float* %207, i32 %1452
  call void @_Z12intrinsic_20PfS_S_xxxxxxx(float* %1453, float* %1453, float* %1454, i64 1, i64 1, i64 1, i64 1, i64 0, i64 0, i64 0)
  %1455 = add nuw nsw i64 %1449, 1
  %1456 = icmp slt i64 %1455, %83
  br i1 %1456, label %1448, label %1445

1457:                                             ; preds = %1438
  br i1 %485, label %1459, label %1458

1458:                                             ; preds = %1457
  br i1 %486, label %1486, label %1495

1459:                                             ; preds = %1457
  br i1 %486, label %1460, label %1495

1460:                                             ; preds = %1459
  %1461 = add i64 %958, %496
  br label %1462

1462:                                             ; preds = %1460, %1483
  %1463 = phi i64 [ 0, %1460 ], [ %1484, %1483 ]
  call void @_Z11intrinsic_76pipe_t(i32 1)
  br i1 %491, label %1464, label %1467

1464:                                             ; preds = %1462
  %1465 = mul nsw i64 %1463, %489
  %1466 = add nsw i64 %1465, %958
  br label %1468

1467:                                             ; preds = %1468, %1462
  br i1 %495, label %1483, label %1477

1468:                                             ; preds = %1464, %1468
  %1469 = phi i64 [ 0, %1464 ], [ %1475, %1468 ]
  %1470 = mul i64 %1469, %494
  %1471 = add i64 %1466, %1470
  %1472 = trunc i64 %1471 to i32
  %1473 = getelementptr inbounds float, float* %195, i32 %1472
  %1474 = getelementptr inbounds float, float* %207, i32 %1472
  call void @_Z12intrinsic_20PfS_S_xxxxxxx(float* %1473, float* %1473, float* %1474, i64 255, i64 1, i64 1, i64 1, i64 %490, i64 %490, i64 %490)
  %1475 = add nuw nsw i64 %1469, 1
  %1476 = icmp slt i64 %1475, %126
  br i1 %1476, label %1468, label %1467

1477:                                             ; preds = %1467
  %1478 = mul nsw i64 %1463, %489
  %1479 = add i64 %1461, %1478
  %1480 = trunc i64 %1479 to i32
  %1481 = getelementptr inbounds float, float* %195, i32 %1480
  %1482 = getelementptr inbounds float, float* %207, i32 %1480
  call void @_Z12intrinsic_20PfS_S_xxxxxxx(float* %1481, float* %1481, float* %1482, i64 %128, i64 1, i64 1, i64 1, i64 %490, i64 %490, i64 %490)
  br label %1483

1483:                                             ; preds = %1467, %1477
  %1484 = add nuw nsw i64 %1463, 1
  %1485 = icmp slt i64 %1484, %85
  br i1 %1485, label %1462, label %1495

1486:                                             ; preds = %1458, %1486
  %1487 = phi i64 [ %1493, %1486 ], [ 0, %1458 ]
  call void @_Z11intrinsic_76pipe_t(i32 1)
  %1488 = mul nsw i64 %1487, %489
  %1489 = add nsw i64 %1488, %958
  %1490 = trunc i64 %1489 to i32
  %1491 = getelementptr inbounds float, float* %195, i32 %1490
  %1492 = getelementptr inbounds float, float* %207, i32 %1490
  call void @_Z12intrinsic_20PfS_S_xxxxxxx(float* %1491, float* %1491, float* %1492, i64 %83, i64 1, i64 1, i64 1, i64 %490, i64 %490, i64 %490)
  %1493 = add nuw nsw i64 %1487, 1
  %1494 = icmp slt i64 %1493, %85
  br i1 %1494, label %1486, label %1495

1495:                                             ; preds = %1486, %1483, %1445, %1458, %1459, %1439
  br i1 %480, label %1697, label %1496

1496:                                             ; preds = %1495
  call void @_Z11intrinsic_1yy(i64 0, i64 %249)
  br i1 %427, label %1497, label %1509

1497:                                             ; preds = %1496
  br i1 %241, label %1498, label %1697

1498:                                             ; preds = %1497
  %1499 = add nsw i64 %958, %105
  br label %1500

1500:                                             ; preds = %1498, %1500
  %1501 = phi i64 [ 0, %1498 ], [ %1507, %1500 ]
  call void @_Z11intrinsic_76pipe_t(i32 1)
  %1502 = mul nsw i64 %1501, %86
  %1503 = add nsw i64 %1499, %1502
  %1504 = trunc i64 %1503 to i32
  %1505 = getelementptr inbounds float, float* %195, i32 %1504
  %1506 = getelementptr inbounds float, float* %207, i32 %1504
  call void @_Z12intrinsic_20PfS_S_xxxxxxx(float* %1505, float* %1505, float* %1506, i64 1, i64 1, i64 1, i64 1, i64 0, i64 0, i64 0)
  %1507 = add nuw nsw i64 %1501, 1
  %1508 = icmp slt i64 %1507, %79
  br i1 %1508, label %1500, label %1697

1509:                                             ; preds = %1496
  %1510 = add nsw i64 %958, %105
  br i1 %481, label %1512, label %1527

1511:                                             ; preds = %1512
  br i1 %483, label %1697, label %1521

1512:                                             ; preds = %1509, %1512
  %1513 = phi i64 [ %1519, %1512 ], [ 0, %1509 ]
  %1514 = mul i64 %1513, %133
  %1515 = add i64 %1510, %1514
  %1516 = trunc i64 %1515 to i32
  %1517 = getelementptr inbounds float, float* %195, i32 %1516
  %1518 = getelementptr inbounds float, float* %207, i32 %1516
  call void @_Z12intrinsic_20PfS_S_xxxxxxx(float* %1517, float* %1517, float* %1518, i64 255, i64 1, i64 1, i64 1, i64 %71, i64 %71, i64 %71)
  %1519 = add nuw nsw i64 %1513, 1
  %1520 = icmp slt i64 %1519, %130
  br i1 %1520, label %1512, label %1511

1521:                                             ; preds = %1511
  %1522 = add nsw i64 %958, %105
  %1523 = add i64 %1522, %136
  %1524 = trunc i64 %1523 to i32
  %1525 = getelementptr inbounds float, float* %195, i32 %1524
  %1526 = getelementptr inbounds float, float* %207, i32 %1524
  call void @_Z12intrinsic_20PfS_S_xxxxxxx(float* %1525, float* %1525, float* %1526, i64 %135, i64 1, i64 1, i64 1, i64 %71, i64 %71, i64 %71)
  br label %1697

1527:                                             ; preds = %1509
  %1528 = trunc i64 %1510 to i32
  %1529 = getelementptr inbounds float, float* %195, i32 %1528
  %1530 = getelementptr inbounds float, float* %207, i32 %1528
  call void @_Z12intrinsic_20PfS_S_xxxxxxx(float* %1529, float* %1529, float* %1530, i64 %79, i64 1, i64 1, i64 1, i64 %71, i64 %71, i64 %71)
  br label %1697

1531:                                             ; preds = %1437
  call void @_Z11intrinsic_1yy(i64 0, i64 %479)
  br i1 %481, label %1533, label %1547

1532:                                             ; preds = %1533
  br i1 %483, label %1697, label %1542

1533:                                             ; preds = %1531, %1533
  %1534 = phi i64 [ %1540, %1533 ], [ 0, %1531 ]
  %1535 = mul i64 %1534, %133
  %1536 = add i64 %1535, %958
  %1537 = trunc i64 %1536 to i32
  %1538 = getelementptr inbounds float, float* %195, i32 %1537
  %1539 = getelementptr inbounds float, float* %207, i32 %1537
  call void @_Z12intrinsic_20PfS_S_xxxxxxx(float* %1538, float* %1538, float* %1539, i64 255, i64 1, i64 1, i64 1, i64 %71, i64 %71, i64 %71)
  %1540 = add nuw nsw i64 %1534, 1
  %1541 = icmp slt i64 %1540, %130
  br i1 %1541, label %1533, label %1532

1542:                                             ; preds = %1532
  %1543 = add i64 %958, %136
  %1544 = trunc i64 %1543 to i32
  %1545 = getelementptr inbounds float, float* %195, i32 %1544
  %1546 = getelementptr inbounds float, float* %207, i32 %1544
  call void @_Z12intrinsic_20PfS_S_xxxxxxx(float* %1545, float* %1545, float* %1546, i64 %135, i64 1, i64 1, i64 1, i64 %71, i64 %71, i64 %71)
  br label %1697

1547:                                             ; preds = %1531
  %1548 = trunc i64 %958 to i32
  %1549 = getelementptr inbounds float, float* %195, i32 %1548
  %1550 = getelementptr inbounds float, float* %207, i32 %1548
  call void @_Z12intrinsic_20PfS_S_xxxxxxx(float* %1549, float* %1549, float* %1550, i64 %79, i64 1, i64 1, i64 1, i64 %71, i64 %71, i64 %71)
  br label %1697

1551:                                             ; preds = %1430
  br i1 %953, label %1552, label %1967

1552:                                             ; preds = %1551
  call void @_Z11intrinsic_76pipe_t(i32 1)
  br i1 %390, label %1553, label %1675

1553:                                             ; preds = %1552
  call void @_Z11intrinsic_1yy(i64 0, i64 -1)
  %1554 = icmp sgt i64 %975, 2040
  br i1 %1554, label %1555, label %1580

1555:                                             ; preds = %1553
  %1556 = icmp sgt i64 %973, 0
  br i1 %1556, label %1557, label %1633

1557:                                             ; preds = %1555
  %1558 = icmp sgt i64 %971, 0
  %1559 = shl i64 %974, 32
  %1560 = ashr exact i64 %1559, 32
  %1561 = shl i64 %975, 32
  %1562 = ashr exact i64 %1561, 32
  br label %1563

1563:                                             ; preds = %1557, %1568
  %1564 = phi i64 [ 0, %1557 ], [ %1569, %1568 ]
  call void @_Z11intrinsic_76pipe_t(i32 1)
  br i1 %1558, label %1565, label %1568

1565:                                             ; preds = %1563
  %1566 = mul nsw i64 %1564, %1560
  %1567 = add nsw i64 %1566, %958
  br label %1571

1568:                                             ; preds = %1571, %1563
  %1569 = add nuw nsw i64 %1564, 1
  %1570 = icmp slt i64 %1569, %973
  br i1 %1570, label %1563, label %1633

1571:                                             ; preds = %1565, %1571
  %1572 = phi i64 [ 0, %1565 ], [ %1578, %1571 ]
  call void @_Z11intrinsic_76pipe_t(i32 1)
  %1573 = mul nsw i64 %1572, %1562
  %1574 = add nsw i64 %1567, %1573
  %1575 = trunc i64 %1574 to i32
  %1576 = getelementptr inbounds float, float* %195, i32 %1575
  %1577 = getelementptr inbounds float, float* %207, i32 %1575
  call void @_Z12intrinsic_20PfS_S_xxxxxxx(float* %1576, float* %1576, float* %1577, i64 1, i64 1, i64 1, i64 1, i64 0, i64 0, i64 0)
  %1578 = add nuw nsw i64 %1572, 1
  %1579 = icmp ult i64 %1578, %971
  br i1 %1579, label %1571, label %1568

1580:                                             ; preds = %1553
  %1581 = icmp sgt i64 %971, 255
  %1582 = icmp sgt i64 %973, 0
  br i1 %1581, label %1588, label %1583

1583:                                             ; preds = %1580
  br i1 %1582, label %1584, label %1633

1584:                                             ; preds = %1583
  %1585 = shl i64 %974, 32
  %1586 = ashr exact i64 %1585, 32
  %1587 = sdiv i64 %975, 8
  br label %1624

1588:                                             ; preds = %1580
  br i1 %1582, label %1589, label %1633

1589:                                             ; preds = %1588
  %1590 = udiv i64 %971, 255
  %1591 = shl i64 %974, 32
  %1592 = ashr exact i64 %1591, 32
  %1593 = trunc i64 %975 to i32
  %1594 = mul i32 %1593, 255
  %1595 = zext i32 %1594 to i64
  %1596 = sdiv i64 %975, 8
  %1597 = urem i64 %971, 255
  %1598 = icmp eq i64 %1597, 0
  %1599 = mul i64 %1590, %1595
  %1600 = add i64 %1599, %958
  br label %1601

1601:                                             ; preds = %1589, %1621
  %1602 = phi i64 [ 0, %1589 ], [ %1622, %1621 ]
  call void @_Z11intrinsic_76pipe_t(i32 1)
  %1603 = mul nsw i64 %1602, %1592
  %1604 = add nsw i64 %1603, %958
  br label %1606

1605:                                             ; preds = %1606
  br i1 %1598, label %1621, label %1615

1606:                                             ; preds = %1601, %1606
  %1607 = phi i64 [ 0, %1601 ], [ %1613, %1606 ]
  %1608 = mul i64 %1607, %1595
  %1609 = add i64 %1604, %1608
  %1610 = trunc i64 %1609 to i32
  %1611 = getelementptr inbounds float, float* %195, i32 %1610
  %1612 = getelementptr inbounds float, float* %207, i32 %1610
  call void @_Z12intrinsic_20PfS_S_xxxxxxx(float* %1611, float* %1611, float* %1612, i64 255, i64 1, i64 1, i64 1, i64 %1596, i64 %1596, i64 %1596)
  %1613 = add nuw nsw i64 %1607, 1
  %1614 = icmp ult i64 %1613, %1590
  br i1 %1614, label %1606, label %1605

1615:                                             ; preds = %1605
  %1616 = mul nsw i64 %1602, %1592
  %1617 = add i64 %1600, %1616
  %1618 = trunc i64 %1617 to i32
  %1619 = getelementptr inbounds float, float* %195, i32 %1618
  %1620 = getelementptr inbounds float, float* %207, i32 %1618
  call void @_Z12intrinsic_20PfS_S_xxxxxxx(float* %1619, float* %1619, float* %1620, i64 %1597, i64 1, i64 1, i64 1, i64 %1596, i64 %1596, i64 %1596)
  br label %1621

1621:                                             ; preds = %1605, %1615
  %1622 = add nuw nsw i64 %1602, 1
  %1623 = icmp slt i64 %1622, %973
  br i1 %1623, label %1601, label %1633

1624:                                             ; preds = %1584, %1624
  %1625 = phi i64 [ 0, %1584 ], [ %1631, %1624 ]
  call void @_Z11intrinsic_76pipe_t(i32 1)
  %1626 = mul nsw i64 %1625, %1586
  %1627 = add nsw i64 %1626, %958
  %1628 = trunc i64 %1627 to i32
  %1629 = getelementptr inbounds float, float* %195, i32 %1628
  %1630 = getelementptr inbounds float, float* %207, i32 %1628
  call void @_Z12intrinsic_20PfS_S_xxxxxxx(float* %1629, float* %1629, float* %1630, i64 %971, i64 1, i64 1, i64 1, i64 %1587, i64 %1587, i64 %1587)
  %1631 = add nuw nsw i64 %1625, 1
  %1632 = icmp slt i64 %1631, %973
  br i1 %1632, label %1624, label %1633

1633:                                             ; preds = %1624, %1621, %1568, %1583, %1588, %1555
  br i1 %480, label %1697, label %1634

1634:                                             ; preds = %1633
  call void @_Z11intrinsic_1yy(i64 0, i64 %249)
  br i1 %427, label %1635, label %1646

1635:                                             ; preds = %1634
  %1636 = add nsw i64 %958, %105
  br label %1637

1637:                                             ; preds = %1635, %1637
  %1638 = phi i64 [ 0, %1635 ], [ %1644, %1637 ]
  call void @_Z11intrinsic_76pipe_t(i32 1)
  %1639 = mul nsw i64 %1638, %86
  %1640 = add nsw i64 %1636, %1639
  %1641 = trunc i64 %1640 to i32
  %1642 = getelementptr inbounds float, float* %195, i32 %1641
  %1643 = getelementptr inbounds float, float* %207, i32 %1641
  call void @_Z12intrinsic_20PfS_S_xxxxxxx(float* %1642, float* %1642, float* %1643, i64 1, i64 1, i64 1, i64 1, i64 0, i64 0, i64 0)
  %1644 = add nuw nsw i64 %1638, 1
  %1645 = icmp ult i64 %1644, %954
  br i1 %1645, label %1637, label %1697

1646:                                             ; preds = %1634
  %1647 = icmp sgt i64 %954, 255
  br i1 %1647, label %1648, label %1670

1648:                                             ; preds = %1646
  %1649 = udiv i64 %954, 255
  %1650 = add nsw i64 %958, %105
  br label %1654

1651:                                             ; preds = %1654
  %1652 = urem i64 %954, 255
  %1653 = icmp eq i64 %1652, 0
  br i1 %1653, label %1697, label %1663

1654:                                             ; preds = %1648, %1654
  %1655 = phi i64 [ 0, %1648 ], [ %1661, %1654 ]
  %1656 = mul i64 %1655, %133
  %1657 = add i64 %1650, %1656
  %1658 = trunc i64 %1657 to i32
  %1659 = getelementptr inbounds float, float* %195, i32 %1658
  %1660 = getelementptr inbounds float, float* %207, i32 %1658
  call void @_Z12intrinsic_20PfS_S_xxxxxxx(float* %1659, float* %1659, float* %1660, i64 255, i64 1, i64 1, i64 1, i64 %71, i64 %71, i64 %71)
  %1661 = add nuw nsw i64 %1655, 1
  %1662 = icmp ult i64 %1661, %1649
  br i1 %1662, label %1654, label %1651

1663:                                             ; preds = %1651
  %1664 = add nsw i64 %958, %105
  %1665 = mul i64 %1649, %133
  %1666 = add i64 %1664, %1665
  %1667 = trunc i64 %1666 to i32
  %1668 = getelementptr inbounds float, float* %195, i32 %1667
  %1669 = getelementptr inbounds float, float* %207, i32 %1667
  call void @_Z12intrinsic_20PfS_S_xxxxxxx(float* %1668, float* %1668, float* %1669, i64 %1652, i64 1, i64 1, i64 1, i64 %71, i64 %71, i64 %71)
  br label %1697

1670:                                             ; preds = %1646
  %1671 = add nsw i64 %958, %105
  %1672 = trunc i64 %1671 to i32
  %1673 = getelementptr inbounds float, float* %195, i32 %1672
  %1674 = getelementptr inbounds float, float* %207, i32 %1672
  call void @_Z12intrinsic_20PfS_S_xxxxxxx(float* %1673, float* %1673, float* %1674, i64 %954, i64 1, i64 1, i64 1, i64 %71, i64 %71, i64 %71)
  br label %1697

1675:                                             ; preds = %1552
  call void @_Z11intrinsic_1yy(i64 0, i64 %479)
  %1676 = icmp sgt i64 %954, 255
  br i1 %1676, label %1677, label %1704

1677:                                             ; preds = %1675
  %1678 = udiv i64 %954, 255
  br label %1682

1679:                                             ; preds = %1682
  %1680 = urem i64 %954, 255
  %1681 = icmp eq i64 %1680, 0
  br i1 %1681, label %1697, label %1691

1682:                                             ; preds = %1677, %1682
  %1683 = phi i64 [ %1689, %1682 ], [ 0, %1677 ]
  %1684 = mul i64 %1683, %133
  %1685 = add i64 %1684, %958
  %1686 = trunc i64 %1685 to i32
  %1687 = getelementptr inbounds float, float* %195, i32 %1686
  %1688 = getelementptr inbounds float, float* %207, i32 %1686
  call void @_Z12intrinsic_20PfS_S_xxxxxxx(float* %1687, float* %1687, float* %1688, i64 255, i64 1, i64 1, i64 1, i64 %71, i64 %71, i64 %71)
  %1689 = add nuw nsw i64 %1683, 1
  %1690 = icmp ult i64 %1689, %1678
  br i1 %1690, label %1682, label %1679

1691:                                             ; preds = %1679
  %1692 = mul i64 %1678, %133
  %1693 = add i64 %958, %1692
  %1694 = trunc i64 %1693 to i32
  %1695 = getelementptr inbounds float, float* %195, i32 %1694
  %1696 = getelementptr inbounds float, float* %207, i32 %1694
  call void @_Z12intrinsic_20PfS_S_xxxxxxx(float* %1695, float* %1695, float* %1696, i64 %1680, i64 1, i64 1, i64 1, i64 %71, i64 %71, i64 %71)
  br label %1697

1697:                                             ; preds = %1637, %1500, %1497, %1511, %1495, %1532, %1651, %1633, %1679, %1691, %1670, %1663, %1521, %1527, %1542, %1547
  %1698 = load i64, i64* @block_idx, align 8, !tbaa !7
  %1699 = trunc i64 %1698 to i32
  %1700 = mul nsw i32 %63, %1699
  %1701 = sext i32 %1700 to i64
  %1702 = sub nsw i64 %951, %1701
  %1703 = icmp sgt i64 %1702, %79
  br i1 %1703, label %1715, label %1818

1704:                                             ; preds = %1675
  %1705 = trunc i64 %958 to i32
  %1706 = getelementptr inbounds float, float* %195, i32 %1705
  %1707 = getelementptr inbounds float, float* %207, i32 %1705
  call void @_Z12intrinsic_20PfS_S_xxxxxxx(float* %1706, float* %1706, float* %1707, i64 %954, i64 1, i64 1, i64 1, i64 %71, i64 %71, i64 %71)
  %1708 = load i64, i64* @block_idx, align 8, !tbaa !7
  %1709 = trunc i64 %1708 to i32
  %1710 = mul nsw i32 %63, %1709
  %1711 = sext i32 %1710 to i64
  %1712 = sub nsw i64 %951, %1711
  %1713 = icmp sgt i64 %1712, %79
  call void @_Z11intrinsic_76pipe_t(i32 1)
  br i1 %1713, label %1801, label %1714

1714:                                             ; preds = %1704
  call void @_Z11intrinsic_1yy(i64 0, i64 %479)
  br label %1963

1715:                                             ; preds = %1697
  call void @_Z11intrinsic_76pipe_t(i32 1)
  br i1 %390, label %1716, label %1801

1716:                                             ; preds = %1715
  call void @_Z11intrinsic_1yy(i64 0, i64 -1)
  br i1 %484, label %1717, label %1734

1717:                                             ; preds = %1716
  br i1 %486, label %1718, label %1769

1718:                                             ; preds = %1717, %1723
  %1719 = phi i64 [ %1724, %1723 ], [ 0, %1717 ]
  call void @_Z11intrinsic_76pipe_t(i32 1)
  br i1 %497, label %1720, label %1723

1720:                                             ; preds = %1718
  %1721 = mul nsw i64 %1719, %489
  %1722 = add nsw i64 %1721, %958
  br label %1726

1723:                                             ; preds = %1726, %1718
  %1724 = add nuw nsw i64 %1719, 1
  %1725 = icmp slt i64 %1724, %85
  br i1 %1725, label %1718, label %1769

1726:                                             ; preds = %1720, %1726
  %1727 = phi i64 [ 0, %1720 ], [ %1732, %1726 ]
  call void @_Z11intrinsic_76pipe_t(i32 1)
  %1728 = mul nsw i64 %1727, %499
  %1729 = add nsw i64 %1722, %1728
  %1730 = trunc i64 %1729 to i32
  %1731 = getelementptr inbounds float, float* %195, i32 %1730
  call void @_Z12intrinsic_21PfS_htthh(float* %1731, float* %1731, i8 zeroext 1, i16 zeroext 1, i16 zeroext 1, i8 zeroext 0, i8 zeroext 0)
  %1732 = add nuw nsw i64 %1727, 1
  %1733 = icmp slt i64 %1732, %83
  br i1 %1733, label %1726, label %1723

1734:                                             ; preds = %1716
  br i1 %485, label %1736, label %1735

1735:                                             ; preds = %1734
  br i1 %486, label %1761, label %1769

1736:                                             ; preds = %1734
  br i1 %486, label %1737, label %1769

1737:                                             ; preds = %1736
  %1738 = add i64 %958, %496
  br label %1739

1739:                                             ; preds = %1737, %1758
  %1740 = phi i64 [ 0, %1737 ], [ %1759, %1758 ]
  call void @_Z11intrinsic_76pipe_t(i32 1)
  br i1 %491, label %1741, label %1744

1741:                                             ; preds = %1739
  %1742 = mul nsw i64 %1740, %489
  %1743 = add nsw i64 %1742, %958
  br label %1745

1744:                                             ; preds = %1745, %1739
  br i1 %495, label %1758, label %1753

1745:                                             ; preds = %1741, %1745
  %1746 = phi i64 [ 0, %1741 ], [ %1751, %1745 ]
  %1747 = mul i64 %1746, %494
  %1748 = add i64 %1743, %1747
  %1749 = trunc i64 %1748 to i32
  %1750 = getelementptr inbounds float, float* %195, i32 %1749
  call void @_Z12intrinsic_21PfS_htthh(float* %1750, float* %1750, i8 zeroext -1, i16 zeroext 1, i16 zeroext 1, i8 zeroext %503, i8 zeroext %503)
  %1751 = add nuw nsw i64 %1746, 1
  %1752 = icmp slt i64 %1751, %126
  br i1 %1752, label %1745, label %1744

1753:                                             ; preds = %1744
  %1754 = mul nsw i64 %1740, %489
  %1755 = add i64 %1738, %1754
  %1756 = trunc i64 %1755 to i32
  %1757 = getelementptr inbounds float, float* %195, i32 %1756
  call void @_Z12intrinsic_21PfS_htthh(float* %1757, float* %1757, i8 zeroext %504, i16 zeroext 1, i16 zeroext 1, i8 zeroext %503, i8 zeroext %503)
  br label %1758

1758:                                             ; preds = %1744, %1753
  %1759 = add nuw nsw i64 %1740, 1
  %1760 = icmp slt i64 %1759, %85
  br i1 %1760, label %1739, label %1769

1761:                                             ; preds = %1735, %1761
  %1762 = phi i64 [ %1767, %1761 ], [ 0, %1735 ]
  call void @_Z11intrinsic_76pipe_t(i32 1)
  %1763 = mul nsw i64 %1762, %489
  %1764 = add nsw i64 %1763, %958
  %1765 = trunc i64 %1764 to i32
  %1766 = getelementptr inbounds float, float* %195, i32 %1765
  call void @_Z12intrinsic_21PfS_htthh(float* %1766, float* %1766, i8 zeroext %502, i16 zeroext 1, i16 zeroext 1, i8 zeroext %503, i8 zeroext %503)
  %1767 = add nuw nsw i64 %1762, 1
  %1768 = icmp slt i64 %1767, %85
  br i1 %1768, label %1761, label %1769

1769:                                             ; preds = %1761, %1758, %1723, %1735, %1736, %1717
  br i1 %480, label %1967, label %1770

1770:                                             ; preds = %1769
  call void @_Z11intrinsic_1yy(i64 0, i64 %249)
  br i1 %427, label %1771, label %1782

1771:                                             ; preds = %1770
  br i1 %241, label %1772, label %1967

1772:                                             ; preds = %1771
  %1773 = add nsw i64 %958, %105
  br label %1774

1774:                                             ; preds = %1772, %1774
  %1775 = phi i64 [ 0, %1772 ], [ %1780, %1774 ]
  call void @_Z11intrinsic_76pipe_t(i32 1)
  %1776 = mul nsw i64 %1775, %86
  %1777 = add nsw i64 %1773, %1776
  %1778 = trunc i64 %1777 to i32
  %1779 = getelementptr inbounds float, float* %195, i32 %1778
  call void @_Z12intrinsic_21PfS_htthh(float* %1779, float* %1779, i8 zeroext 1, i16 zeroext 1, i16 zeroext 1, i8 zeroext 0, i8 zeroext 0)
  %1780 = add nuw nsw i64 %1775, 1
  %1781 = icmp slt i64 %1780, %79
  br i1 %1781, label %1774, label %1967

1782:                                             ; preds = %1770
  %1783 = add nsw i64 %958, %105
  br i1 %481, label %1785, label %1798

1784:                                             ; preds = %1785
  br i1 %483, label %1967, label %1793

1785:                                             ; preds = %1782, %1785
  %1786 = phi i64 [ %1791, %1785 ], [ 0, %1782 ]
  %1787 = mul i64 %1786, %133
  %1788 = add i64 %1783, %1787
  %1789 = trunc i64 %1788 to i32
  %1790 = getelementptr inbounds float, float* %195, i32 %1789
  call void @_Z12intrinsic_21PfS_htthh(float* %1790, float* %1790, i8 zeroext -1, i16 zeroext 1, i16 zeroext 1, i8 zeroext %500, i8 zeroext %500)
  %1791 = add nuw nsw i64 %1786, 1
  %1792 = icmp slt i64 %1791, %130
  br i1 %1792, label %1785, label %1784

1793:                                             ; preds = %1784
  %1794 = add nsw i64 %958, %105
  %1795 = add i64 %1794, %136
  %1796 = trunc i64 %1795 to i32
  %1797 = getelementptr inbounds float, float* %195, i32 %1796
  call void @_Z12intrinsic_21PfS_htthh(float* %1797, float* %1797, i8 zeroext %501, i16 zeroext 1, i16 zeroext 1, i8 zeroext %500, i8 zeroext %500)
  br label %1967

1798:                                             ; preds = %1782
  %1799 = trunc i64 %1783 to i32
  %1800 = getelementptr inbounds float, float* %195, i32 %1799
  call void @_Z12intrinsic_21PfS_htthh(float* %1800, float* %1800, i8 zeroext %145, i16 zeroext 1, i16 zeroext 1, i8 zeroext %500, i8 zeroext %500)
  br label %1967

1801:                                             ; preds = %1704, %1715
  call void @_Z11intrinsic_1yy(i64 0, i64 %479)
  br i1 %481, label %1803, label %1815

1802:                                             ; preds = %1803
  br i1 %483, label %1967, label %1811

1803:                                             ; preds = %1801, %1803
  %1804 = phi i64 [ %1809, %1803 ], [ 0, %1801 ]
  %1805 = mul i64 %1804, %133
  %1806 = add i64 %1805, %958
  %1807 = trunc i64 %1806 to i32
  %1808 = getelementptr inbounds float, float* %195, i32 %1807
  call void @_Z12intrinsic_21PfS_htthh(float* %1808, float* %1808, i8 zeroext -1, i16 zeroext 1, i16 zeroext 1, i8 zeroext %500, i8 zeroext %500)
  %1809 = add nuw nsw i64 %1804, 1
  %1810 = icmp slt i64 %1809, %130
  br i1 %1810, label %1803, label %1802

1811:                                             ; preds = %1802
  %1812 = add i64 %958, %136
  %1813 = trunc i64 %1812 to i32
  %1814 = getelementptr inbounds float, float* %195, i32 %1813
  call void @_Z12intrinsic_21PfS_htthh(float* %1814, float* %1814, i8 zeroext %501, i16 zeroext 1, i16 zeroext 1, i8 zeroext %500, i8 zeroext %500)
  br label %1967

1815:                                             ; preds = %1801
  %1816 = trunc i64 %958 to i32
  %1817 = getelementptr inbounds float, float* %195, i32 %1816
  call void @_Z12intrinsic_21PfS_htthh(float* %1817, float* %1817, i8 zeroext %145, i16 zeroext 1, i16 zeroext 1, i8 zeroext %500, i8 zeroext %500)
  br label %1967

1818:                                             ; preds = %1697
  br i1 %953, label %1819, label %1967

1819:                                             ; preds = %1818
  call void @_Z11intrinsic_76pipe_t(i32 1)
  br i1 %390, label %1820, label %1940

1820:                                             ; preds = %1819
  call void @_Z11intrinsic_1yy(i64 0, i64 -1)
  %1821 = icmp sgt i64 %975, 2040
  br i1 %1821, label %1822, label %1846

1822:                                             ; preds = %1820
  %1823 = icmp sgt i64 %973, 0
  br i1 %1823, label %1824, label %1900

1824:                                             ; preds = %1822
  %1825 = icmp sgt i64 %971, 0
  %1826 = shl i64 %974, 32
  %1827 = ashr exact i64 %1826, 32
  %1828 = shl i64 %975, 32
  %1829 = ashr exact i64 %1828, 32
  br label %1830

1830:                                             ; preds = %1824, %1835
  %1831 = phi i64 [ 0, %1824 ], [ %1836, %1835 ]
  call void @_Z11intrinsic_76pipe_t(i32 1)
  br i1 %1825, label %1832, label %1835

1832:                                             ; preds = %1830
  %1833 = mul nsw i64 %1831, %1827
  %1834 = add nsw i64 %1833, %958
  br label %1838

1835:                                             ; preds = %1838, %1830
  %1836 = add nuw nsw i64 %1831, 1
  %1837 = icmp slt i64 %1836, %973
  br i1 %1837, label %1830, label %1900

1838:                                             ; preds = %1832, %1838
  %1839 = phi i64 [ 0, %1832 ], [ %1844, %1838 ]
  call void @_Z11intrinsic_76pipe_t(i32 1)
  %1840 = mul nsw i64 %1839, %1829
  %1841 = add nsw i64 %1834, %1840
  %1842 = trunc i64 %1841 to i32
  %1843 = getelementptr inbounds float, float* %195, i32 %1842
  call void @_Z12intrinsic_21PfS_htthh(float* %1843, float* %1843, i8 zeroext 1, i16 zeroext 1, i16 zeroext 1, i8 zeroext 0, i8 zeroext 0)
  %1844 = add nuw nsw i64 %1839, 1
  %1845 = icmp ult i64 %1844, %971
  br i1 %1845, label %1838, label %1835

1846:                                             ; preds = %1820
  %1847 = icmp sgt i64 %971, 255
  %1848 = icmp sgt i64 %973, 0
  br i1 %1847, label %1856, label %1849

1849:                                             ; preds = %1846
  br i1 %1848, label %1850, label %1900

1850:                                             ; preds = %1849
  %1851 = shl i64 %974, 32
  %1852 = ashr exact i64 %1851, 32
  %1853 = trunc i64 %971 to i8
  %1854 = sdiv i64 %975, 8
  %1855 = trunc i64 %1854 to i8
  br label %1892

1856:                                             ; preds = %1846
  br i1 %1848, label %1857, label %1900

1857:                                             ; preds = %1856
  %1858 = udiv i64 %971, 255
  %1859 = shl i64 %974, 32
  %1860 = ashr exact i64 %1859, 32
  %1861 = trunc i64 %975 to i32
  %1862 = mul i32 %1861, 255
  %1863 = zext i32 %1862 to i64
  %1864 = sdiv i64 %975, 8
  %1865 = trunc i64 %1864 to i8
  %1866 = urem i64 %971, 255
  %1867 = icmp eq i64 %1866, 0
  %1868 = trunc i64 %1866 to i8
  %1869 = mul i64 %1858, %1863
  %1870 = add i64 %1869, %958
  br label %1871

1871:                                             ; preds = %1857, %1889
  %1872 = phi i64 [ 0, %1857 ], [ %1890, %1889 ]
  call void @_Z11intrinsic_76pipe_t(i32 1)
  %1873 = mul nsw i64 %1872, %1860
  %1874 = add nsw i64 %1873, %958
  br label %1876

1875:                                             ; preds = %1876
  br i1 %1867, label %1889, label %1884

1876:                                             ; preds = %1871, %1876
  %1877 = phi i64 [ 0, %1871 ], [ %1882, %1876 ]
  %1878 = mul i64 %1877, %1863
  %1879 = add i64 %1874, %1878
  %1880 = trunc i64 %1879 to i32
  %1881 = getelementptr inbounds float, float* %195, i32 %1880
  call void @_Z12intrinsic_21PfS_htthh(float* %1881, float* %1881, i8 zeroext -1, i16 zeroext 1, i16 zeroext 1, i8 zeroext %1865, i8 zeroext %1865)
  %1882 = add nuw nsw i64 %1877, 1
  %1883 = icmp ult i64 %1882, %1858
  br i1 %1883, label %1876, label %1875

1884:                                             ; preds = %1875
  %1885 = mul nsw i64 %1872, %1860
  %1886 = add i64 %1870, %1885
  %1887 = trunc i64 %1886 to i32
  %1888 = getelementptr inbounds float, float* %195, i32 %1887
  call void @_Z12intrinsic_21PfS_htthh(float* %1888, float* %1888, i8 zeroext %1868, i16 zeroext 1, i16 zeroext 1, i8 zeroext %1865, i8 zeroext %1865)
  br label %1889

1889:                                             ; preds = %1875, %1884
  %1890 = add nuw nsw i64 %1872, 1
  %1891 = icmp slt i64 %1890, %973
  br i1 %1891, label %1871, label %1900

1892:                                             ; preds = %1850, %1892
  %1893 = phi i64 [ 0, %1850 ], [ %1898, %1892 ]
  call void @_Z11intrinsic_76pipe_t(i32 1)
  %1894 = mul nsw i64 %1893, %1852
  %1895 = add nsw i64 %1894, %958
  %1896 = trunc i64 %1895 to i32
  %1897 = getelementptr inbounds float, float* %195, i32 %1896
  call void @_Z12intrinsic_21PfS_htthh(float* %1897, float* %1897, i8 zeroext %1853, i16 zeroext 1, i16 zeroext 1, i8 zeroext %1855, i8 zeroext %1855)
  %1898 = add nuw nsw i64 %1893, 1
  %1899 = icmp slt i64 %1898, %973
  br i1 %1899, label %1892, label %1900

1900:                                             ; preds = %1892, %1889, %1835, %1849, %1856, %1822
  br i1 %480, label %1967, label %1901

1901:                                             ; preds = %1900
  call void @_Z11intrinsic_1yy(i64 0, i64 %249)
  br i1 %427, label %1902, label %1912

1902:                                             ; preds = %1901
  %1903 = add nsw i64 %958, %105
  br label %1904

1904:                                             ; preds = %1902, %1904
  %1905 = phi i64 [ 0, %1902 ], [ %1910, %1904 ]
  call void @_Z11intrinsic_76pipe_t(i32 1)
  %1906 = mul nsw i64 %1905, %86
  %1907 = add nsw i64 %1903, %1906
  %1908 = trunc i64 %1907 to i32
  %1909 = getelementptr inbounds float, float* %195, i32 %1908
  call void @_Z12intrinsic_21PfS_htthh(float* %1909, float* %1909, i8 zeroext 1, i16 zeroext 1, i16 zeroext 1, i8 zeroext 0, i8 zeroext 0)
  %1910 = add nuw nsw i64 %1905, 1
  %1911 = icmp ult i64 %1910, %954
  br i1 %1911, label %1904, label %1967

1912:                                             ; preds = %1901
  %1913 = icmp sgt i64 %954, 255
  br i1 %1913, label %1914, label %1935

1914:                                             ; preds = %1912
  %1915 = udiv i64 %954, 255
  %1916 = add nsw i64 %958, %105
  br label %1920

1917:                                             ; preds = %1920
  %1918 = urem i64 %954, 255
  %1919 = icmp eq i64 %1918, 0
  br i1 %1919, label %1967, label %1928

1920:                                             ; preds = %1914, %1920
  %1921 = phi i64 [ 0, %1914 ], [ %1926, %1920 ]
  %1922 = mul i64 %1921, %133
  %1923 = add i64 %1916, %1922
  %1924 = trunc i64 %1923 to i32
  %1925 = getelementptr inbounds float, float* %195, i32 %1924
  call void @_Z12intrinsic_21PfS_htthh(float* %1925, float* %1925, i8 zeroext -1, i16 zeroext 1, i16 zeroext 1, i8 zeroext %500, i8 zeroext %500)
  %1926 = add nuw nsw i64 %1921, 1
  %1927 = icmp ult i64 %1926, %1915
  br i1 %1927, label %1920, label %1917

1928:                                             ; preds = %1917
  %1929 = add nsw i64 %958, %105
  %1930 = mul i64 %1915, %133
  %1931 = add i64 %1929, %1930
  %1932 = trunc i64 %1931 to i32
  %1933 = getelementptr inbounds float, float* %195, i32 %1932
  %1934 = trunc i64 %1918 to i8
  call void @_Z12intrinsic_21PfS_htthh(float* %1933, float* %1933, i8 zeroext %1934, i16 zeroext 1, i16 zeroext 1, i8 zeroext %500, i8 zeroext %500)
  br label %1967

1935:                                             ; preds = %1912
  %1936 = add nsw i64 %958, %105
  %1937 = trunc i64 %1936 to i32
  %1938 = getelementptr inbounds float, float* %195, i32 %1937
  %1939 = trunc i64 %954 to i8
  call void @_Z12intrinsic_21PfS_htthh(float* %1938, float* %1938, i8 zeroext %1939, i16 zeroext 1, i16 zeroext 1, i8 zeroext %500, i8 zeroext %500)
  br label %1967

1940:                                             ; preds = %1819
  call void @_Z11intrinsic_1yy(i64 0, i64 %479)
  %1941 = icmp sgt i64 %954, 255
  br i1 %1941, label %1944, label %1942

1942:                                             ; preds = %1940
  %1943 = trunc i64 %958 to i32
  br label %1963

1944:                                             ; preds = %1940
  %1945 = udiv i64 %954, 255
  br label %1949

1946:                                             ; preds = %1949
  %1947 = urem i64 %954, 255
  %1948 = icmp eq i64 %1947, 0
  br i1 %1948, label %1967, label %1957

1949:                                             ; preds = %1944, %1949
  %1950 = phi i64 [ %1955, %1949 ], [ 0, %1944 ]
  %1951 = mul i64 %1950, %133
  %1952 = add i64 %1951, %958
  %1953 = trunc i64 %1952 to i32
  %1954 = getelementptr inbounds float, float* %195, i32 %1953
  call void @_Z12intrinsic_21PfS_htthh(float* %1954, float* %1954, i8 zeroext -1, i16 zeroext 1, i16 zeroext 1, i8 zeroext %500, i8 zeroext %500)
  %1955 = add nuw nsw i64 %1950, 1
  %1956 = icmp ult i64 %1955, %1945
  br i1 %1956, label %1949, label %1946

1957:                                             ; preds = %1946
  %1958 = mul i64 %1945, %133
  %1959 = add i64 %958, %1958
  %1960 = trunc i64 %1959 to i32
  %1961 = getelementptr inbounds float, float* %195, i32 %1960
  %1962 = trunc i64 %1947 to i8
  call void @_Z12intrinsic_21PfS_htthh(float* %1961, float* %1961, i8 zeroext %1962, i16 zeroext 1, i16 zeroext 1, i8 zeroext %500, i8 zeroext %500)
  br label %1967

1963:                                             ; preds = %1942, %1714
  %1964 = phi i32 [ %1943, %1942 ], [ %1705, %1714 ]
  %1965 = getelementptr inbounds float, float* %195, i32 %1964
  %1966 = trunc i64 %954 to i8
  call void @_Z12intrinsic_21PfS_htthh(float* %1965, float* %1965, i8 zeroext %1966, i16 zeroext 1, i16 zeroext 1, i8 zeroext %500, i8 zeroext %500)
  br label %1967

1967:                                             ; preds = %1904, %1774, %1551, %1771, %1784, %1769, %1802, %1917, %1900, %1946, %1818, %1963, %1957, %1935, %1928, %1793, %1798, %1811, %1815
  call void @_Z12intrinsic_276pipe_tS_9EventType(i32 0, i32 1, i32 0)
  %1968 = load i64, i64* @block_idx, align 8, !tbaa !7
  %1969 = trunc i64 %1968 to i32
  %1970 = mul nsw i32 %63, %1969
  %1971 = sext i32 %1970 to i64
  %1972 = sub nsw i64 %951, %1971
  %1973 = icmp sgt i64 %1972, %79
  br i1 %1973, label %1974, label %2162

1974:                                             ; preds = %1967
  br i1 %390, label %1975, label %2136

1975:                                             ; preds = %1974
  call void @_Z11intrinsic_76pipe_t(i32 1)
  call void @_Z11intrinsic_1yy(i64 0, i64 -1)
  br i1 %481, label %1977, label %1985

1976:                                             ; preds = %1977
  br i1 %483, label %1986, label %1984

1977:                                             ; preds = %1975, %1977
  %1978 = phi i64 [ %1982, %1977 ], [ 0, %1975 ]
  %1979 = trunc i64 %1978 to i32
  %1980 = mul i32 %1979, 16320
  %1981 = getelementptr inbounds float, float* %207, i32 %1980
  call void @_Z12intrinsic_28Pffxxxxx(float* %1981, float 0.000000e+00, i64 255, i64 1, i64 1, i64 8, i64 0)
  %1982 = add nuw nsw i64 %1978, 1
  %1983 = icmp slt i64 %1982, %130
  br i1 %1983, label %1977, label %1976

1984:                                             ; preds = %1976
  call void @_Z12intrinsic_28Pffxxxxx(float* %516, float 0.000000e+00, i64 %135, i64 1, i64 1, i64 8, i64 0)
  br label %1986

1985:                                             ; preds = %1975
  call void @_Z12intrinsic_28Pffxxxxx(float* %207, float 0.000000e+00, i64 %79, i64 1, i64 1, i64 8, i64 0)
  br label %1986

1986:                                             ; preds = %1976, %1984, %1985
  call void @_Z11intrinsic_76pipe_t(i32 1)
  br i1 %84, label %1987, label %2019

1987:                                             ; preds = %1986
  br i1 %244, label %1989, label %1988

1988:                                             ; preds = %1987
  br i1 %241, label %2008, label %2076

1989:                                             ; preds = %1987
  br i1 %241, label %1990, label %2076

1990:                                             ; preds = %1989
  %1991 = add nsw i64 %958, %102
  br label %1992

1992:                                             ; preds = %1990, %2005
  %1993 = phi i64 [ 0, %1990 ], [ %2006, %2005 ]
  call void @_Z11intrinsic_76pipe_t(i32 1)
  call void @_Z11intrinsic_76pipe_t(i32 1)
  %1994 = trunc i64 %1993 to i32
  %1995 = shl i32 %1994, 6
  %1996 = getelementptr inbounds float, float* %207, i32 %1995
  %1997 = mul nsw i64 %1993, %86
  %1998 = add nsw i64 %1997, %958
  %1999 = trunc i64 %1998 to i32
  %2000 = getelementptr inbounds float, float* %195, i32 %1999
  call void @_Z12intrinsic_22PfS_S_xxxxxxx(float* %1996, float* %2000, float* %1996, i64 255, i64 1, i64 1, i64 1, i64 0, i64 8, i64 0)
  br i1 %246, label %2005, label %2001

2001:                                             ; preds = %1992
  call void @_Z11intrinsic_76pipe_t(i32 1)
  %2002 = add nsw i64 %1991, %1997
  %2003 = trunc i64 %2002 to i32
  %2004 = getelementptr inbounds float, float* %195, i32 %2003
  call void @_Z12intrinsic_22PfS_S_xxxxxxx(float* %1996, float* %2004, float* %1996, i64 %101, i64 1, i64 1, i64 1, i64 0, i64 8, i64 0)
  br label %2005

2005:                                             ; preds = %1992, %2001
  %2006 = add nuw nsw i64 %1993, 1
  %2007 = icmp slt i64 %2006, %79
  br i1 %2007, label %1992, label %2076

2008:                                             ; preds = %1988, %2008
  %2009 = phi i64 [ %2017, %2008 ], [ 0, %1988 ]
  call void @_Z11intrinsic_76pipe_t(i32 1)
  call void @_Z11intrinsic_76pipe_t(i32 1)
  call void @_Z11intrinsic_76pipe_t(i32 1)
  %2010 = trunc i64 %2009 to i32
  %2011 = shl i32 %2010, 6
  %2012 = getelementptr inbounds float, float* %207, i32 %2011
  %2013 = mul nsw i64 %2009, %86
  %2014 = add nsw i64 %2013, %958
  %2015 = trunc i64 %2014 to i32
  %2016 = getelementptr inbounds float, float* %195, i32 %2015
  call void @_Z12intrinsic_22PfS_S_xxxxxxx(float* %2012, float* %2016, float* %2012, i64 %81, i64 1, i64 1, i64 1, i64 0, i64 8, i64 0)
  %2017 = add nuw nsw i64 %2009, 1
  %2018 = icmp slt i64 %2017, %79
  br i1 %2018, label %2008, label %2076

2019:                                             ; preds = %1986
  br i1 %427, label %2020, label %2039

2020:                                             ; preds = %2019, %2025
  %2021 = phi i64 [ %2026, %2025 ], [ 0, %2019 ]
  call void @_Z11intrinsic_76pipe_t(i32 1)
  call void @_Z11intrinsic_76pipe_t(i32 1)
  br i1 %241, label %2022, label %2025

2022:                                             ; preds = %2020
  %2023 = shl nsw i64 %2021, 6
  %2024 = add nsw i64 %2023, %958
  br label %2028

2025:                                             ; preds = %2028, %2020
  %2026 = add nuw nsw i64 %2021, 1
  %2027 = icmp slt i64 %2026, %81
  br i1 %2027, label %2020, label %2076

2028:                                             ; preds = %2022, %2028
  %2029 = phi i64 [ 0, %2022 ], [ %2037, %2028 ]
  call void @_Z11intrinsic_76pipe_t(i32 1)
  call void @_Z11intrinsic_76pipe_t(i32 1)
  %2030 = trunc i64 %2029 to i32
  %2031 = shl i32 %2030, 6
  %2032 = getelementptr inbounds float, float* %207, i32 %2031
  %2033 = mul nsw i64 %2029, %86
  %2034 = add nsw i64 %2024, %2033
  %2035 = trunc i64 %2034 to i32
  %2036 = getelementptr inbounds float, float* %195, i32 %2035
  call void @_Z12intrinsic_22PfS_S_xxxxxxx(float* %2032, float* %2036, float* %2032, i64 1, i64 1, i64 1, i64 1, i64 0, i64 0, i64 0)
  %2037 = add nuw nsw i64 %2029, 1
  %2038 = icmp slt i64 %2037, %79
  br i1 %2038, label %2028, label %2025

2039:                                             ; preds = %2019
  br i1 %481, label %2041, label %2040

2040:                                             ; preds = %2039
  br i1 %243, label %2068, label %2076

2041:                                             ; preds = %2039
  br i1 %243, label %2042, label %2076

2042:                                             ; preds = %2041, %2065
  %2043 = phi i64 [ %2066, %2065 ], [ 0, %2041 ]
  call void @_Z11intrinsic_76pipe_t(i32 1)
  call void @_Z11intrinsic_76pipe_t(i32 1)
  br i1 %482, label %2044, label %2047

2044:                                             ; preds = %2042
  %2045 = shl nsw i64 %2043, 6
  %2046 = add nsw i64 %2045, %958
  br label %2048

2047:                                             ; preds = %2048, %2042
  br i1 %483, label %2065, label %2059

2048:                                             ; preds = %2044, %2048
  %2049 = phi i64 [ 0, %2044 ], [ %2057, %2048 ]
  call void @_Z11intrinsic_76pipe_t(i32 1)
  %2050 = trunc i64 %2049 to i32
  %2051 = mul i32 %2050, 16320
  %2052 = getelementptr inbounds float, float* %207, i32 %2051
  %2053 = mul i64 %2049, %133
  %2054 = add i64 %2046, %2053
  %2055 = trunc i64 %2054 to i32
  %2056 = getelementptr inbounds float, float* %195, i32 %2055
  call void @_Z12intrinsic_22PfS_S_xxxxxxx(float* %2052, float* %2056, float* %2052, i64 255, i64 1, i64 1, i64 1, i64 8, i64 %71, i64 8)
  %2057 = add nuw nsw i64 %2049, 1
  %2058 = icmp slt i64 %2057, %130
  br i1 %2058, label %2048, label %2047

2059:                                             ; preds = %2047
  call void @_Z11intrinsic_76pipe_t(i32 1)
  %2060 = shl nsw i64 %2043, 6
  %2061 = add nsw i64 %2060, %958
  %2062 = trunc i64 %2061 to i32
  %2063 = add i32 %138, %2062
  %2064 = getelementptr inbounds float, float* %195, i32 %2063
  call void @_Z12intrinsic_22PfS_S_xxxxxxx(float* %516, float* %2064, float* %516, i64 %135, i64 1, i64 1, i64 1, i64 8, i64 %71, i64 8)
  br label %2065

2065:                                             ; preds = %2047, %2059
  %2066 = add nuw nsw i64 %2043, 1
  %2067 = icmp slt i64 %2066, %81
  br i1 %2067, label %2042, label %2076

2068:                                             ; preds = %2040, %2068
  %2069 = phi i64 [ %2074, %2068 ], [ 0, %2040 ]
  call void @_Z11intrinsic_76pipe_t(i32 1)
  call void @_Z11intrinsic_76pipe_t(i32 1)
  call void @_Z11intrinsic_76pipe_t(i32 1)
  %2070 = shl nsw i64 %2069, 6
  %2071 = add nsw i64 %2070, %958
  %2072 = trunc i64 %2071 to i32
  %2073 = getelementptr inbounds float, float* %195, i32 %2072
  call void @_Z12intrinsic_22PfS_S_xxxxxxx(float* %207, float* %2073, float* %207, i64 %79, i64 1, i64 1, i64 1, i64 8, i64 %71, i64 8)
  %2074 = add nuw nsw i64 %2069, 1
  %2075 = icmp slt i64 %2074, %81
  br i1 %2075, label %2068, label %2076

2076:                                             ; preds = %2068, %2065, %2025, %2008, %2005, %2040, %2041, %1988, %1989
  br i1 %247, label %2077, label %2116

2077:                                             ; preds = %2076
  call void @_Z11intrinsic_1yy(i64 0, i64 %249)
  br i1 %507, label %2081, label %2078

2078:                                             ; preds = %2077
  br i1 %241, label %2079, label %2116

2079:                                             ; preds = %2078
  %2080 = add nsw i64 %958, %105
  br label %2105

2081:                                             ; preds = %2077
  call void @_Z11intrinsic_76pipe_t(i32 1)
  call void @_Z11intrinsic_76pipe_t(i32 1)
  br i1 %481, label %2082, label %2101

2082:                                             ; preds = %2081
  %2083 = add nsw i64 %958, %105
  br label %2085

2084:                                             ; preds = %2085
  br i1 %483, label %2116, label %2096

2085:                                             ; preds = %2082, %2085
  %2086 = phi i64 [ 0, %2082 ], [ %2094, %2085 ]
  call void @_Z11intrinsic_76pipe_t(i32 1)
  %2087 = trunc i64 %2086 to i32
  %2088 = mul i32 %2087, 16320
  %2089 = getelementptr inbounds float, float* %207, i32 %2088
  %2090 = mul i64 %2086, %133
  %2091 = add i64 %2083, %2090
  %2092 = trunc i64 %2091 to i32
  %2093 = getelementptr inbounds float, float* %195, i32 %2092
  call void @_Z12intrinsic_22PfS_S_xxxxxxx(float* %2089, float* %2093, float* %2089, i64 255, i64 1, i64 1, i64 1, i64 8, i64 %71, i64 8)
  %2094 = add nuw nsw i64 %2086, 1
  %2095 = icmp slt i64 %2094, %130
  br i1 %2095, label %2085, label %2084

2096:                                             ; preds = %2084
  call void @_Z11intrinsic_76pipe_t(i32 1)
  %2097 = add nsw i64 %958, %105
  %2098 = trunc i64 %2097 to i32
  %2099 = add i32 %138, %2098
  %2100 = getelementptr inbounds float, float* %195, i32 %2099
  call void @_Z12intrinsic_22PfS_S_xxxxxxx(float* %516, float* %2100, float* %516, i64 %135, i64 1, i64 1, i64 1, i64 8, i64 %71, i64 8)
  br label %2116

2101:                                             ; preds = %2081
  call void @_Z11intrinsic_76pipe_t(i32 1)
  %2102 = add nsw i64 %958, %105
  %2103 = trunc i64 %2102 to i32
  %2104 = getelementptr inbounds float, float* %195, i32 %2103
  call void @_Z12intrinsic_22PfS_S_xxxxxxx(float* %207, float* %2104, float* %207, i64 %79, i64 1, i64 1, i64 1, i64 8, i64 %71, i64 8)
  br label %2116

2105:                                             ; preds = %2079, %2105
  %2106 = phi i64 [ 0, %2079 ], [ %2114, %2105 ]
  call void @_Z11intrinsic_76pipe_t(i32 1)
  call void @_Z11intrinsic_76pipe_t(i32 1)
  call void @_Z11intrinsic_76pipe_t(i32 1)
  %2107 = trunc i64 %2106 to i32
  %2108 = shl i32 %2107, 6
  %2109 = getelementptr inbounds float, float* %207, i32 %2108
  %2110 = mul nsw i64 %2106, %86
  %2111 = add nsw i64 %2080, %2110
  %2112 = trunc i64 %2111 to i32
  %2113 = getelementptr inbounds float, float* %195, i32 %2112
  call void @_Z12intrinsic_22PfS_S_xxxxxxx(float* %2109, float* %2113, float* %2109, i64 1, i64 1, i64 1, i64 1, i64 0, i64 0, i64 0)
  %2114 = add nuw nsw i64 %2106, 1
  %2115 = icmp slt i64 %2114, %79
  br i1 %2115, label %2105, label %2116

2116:                                             ; preds = %2105, %2078, %2084, %2101, %2096, %2076
  call void @_Z11intrinsic_1yy(i64 0, i64 -1)
  br i1 %508, label %2118, label %2133

2117:                                             ; preds = %2118
  br i1 %511, label %2389, label %2129

2118:                                             ; preds = %2116, %2118
  %2119 = phi i64 [ %2127, %2118 ], [ 0, %2116 ]
  call void @_Z11intrinsic_76pipe_t(i32 1)
  %2120 = mul nuw nsw i64 %2119, 240
  %2121 = add nuw nsw i64 %2120, %957
  %2122 = trunc i64 %2121 to i32
  %2123 = getelementptr inbounds float, float* %198, i32 %2122
  %2124 = trunc i64 %2119 to i32
  %2125 = mul i32 %2124, 15360
  %2126 = getelementptr inbounds float, float* %207, i32 %2125
  call void @_Z12intrinsic_24PfS_xxxx(float* %2123, float* %2126, i64 240, i64 1, i64 1, i64 8)
  %2127 = add nuw nsw i64 %2119, 1
  %2128 = icmp slt i64 %2127, %140
  br i1 %2128, label %2118, label %2117

2129:                                             ; preds = %2117
  call void @_Z11intrinsic_76pipe_t(i32 1)
  %2130 = add nsw i64 %957, %143
  %2131 = trunc i64 %2130 to i32
  %2132 = getelementptr inbounds float, float* %198, i32 %2131
  call void @_Z12intrinsic_24PfS_xxxx(float* %2132, float* %519, i64 %513, i64 1, i64 1, i64 8)
  br label %2389

2133:                                             ; preds = %2116
  call void @_Z11intrinsic_76pipe_t(i32 1)
  %2134 = trunc i64 %957 to i32
  %2135 = getelementptr inbounds float, float* %198, i32 %2134
  call void @_Z12intrinsic_24PfS_xxxx(float* %2135, float* %207, i64 %510, i64 1, i64 1, i64 8)
  br label %2389

2136:                                             ; preds = %1974
  call void @_Z11intrinsic_1yy(i64 0, i64 %479)
  br i1 %508, label %2138, label %2157

2137:                                             ; preds = %2138
  br i1 %511, label %2389, label %2150

2138:                                             ; preds = %2136, %2138
  %2139 = phi i64 [ %2148, %2138 ], [ 0, %2136 ]
  call void @_Z11intrinsic_76pipe_t(i32 1)
  %2140 = mul nuw nsw i64 %2139, 240
  %2141 = add nuw nsw i64 %2140, %957
  %2142 = trunc i64 %2141 to i32
  %2143 = getelementptr inbounds float, float* %198, i32 %2142
  %2144 = mul i64 %2139, %147
  %2145 = add i64 %2144, %958
  %2146 = trunc i64 %2145 to i32
  %2147 = getelementptr inbounds float, float* %195, i32 %2146
  call void @_Z12intrinsic_24PfS_xxxx(float* %2143, float* %2147, i64 240, i64 1, i64 1, i64 %506)
  %2148 = add nuw nsw i64 %2139, 1
  %2149 = icmp slt i64 %2148, %140
  br i1 %2149, label %2138, label %2137

2150:                                             ; preds = %2137
  call void @_Z11intrinsic_76pipe_t(i32 1)
  %2151 = add nsw i64 %957, %143
  %2152 = trunc i64 %2151 to i32
  %2153 = getelementptr inbounds float, float* %198, i32 %2152
  %2154 = add i64 %958, %148
  %2155 = trunc i64 %2154 to i32
  %2156 = getelementptr inbounds float, float* %195, i32 %2155
  call void @_Z12intrinsic_24PfS_xxxx(float* %2153, float* %2156, i64 %513, i64 1, i64 1, i64 %506)
  br label %2389

2157:                                             ; preds = %2136
  call void @_Z11intrinsic_76pipe_t(i32 1)
  %2158 = trunc i64 %957 to i32
  %2159 = getelementptr inbounds float, float* %198, i32 %2158
  %2160 = trunc i64 %958 to i32
  %2161 = getelementptr inbounds float, float* %195, i32 %2160
  call void @_Z12intrinsic_24PfS_xxxx(float* %2159, float* %2161, i64 %510, i64 1, i64 1, i64 %506)
  br label %2389

2162:                                             ; preds = %1967
  br i1 %953, label %2163, label %2389

2163:                                             ; preds = %2162
  br i1 %390, label %2164, label %2353

2164:                                             ; preds = %2163
  call void @_Z11intrinsic_76pipe_t(i32 1)
  call void @_Z11intrinsic_1yy(i64 0, i64 -1)
  %2165 = icmp sgt i64 %954, 255
  br i1 %2165, label %2166, label %2182

2166:                                             ; preds = %2164
  %2167 = udiv i64 %954, 255
  br label %2171

2168:                                             ; preds = %2171
  %2169 = urem i64 %954, 255
  %2170 = icmp eq i64 %2169, 0
  br i1 %2170, label %2183, label %2178

2171:                                             ; preds = %2166, %2171
  %2172 = phi i64 [ %2176, %2171 ], [ 0, %2166 ]
  %2173 = trunc i64 %2172 to i32
  %2174 = mul i32 %2173, 16320
  %2175 = getelementptr inbounds float, float* %207, i32 %2174
  call void @_Z12intrinsic_28Pffxxxxx(float* %2175, float 0.000000e+00, i64 255, i64 1, i64 1, i64 8, i64 0)
  %2176 = add nuw nsw i64 %2172, 1
  %2177 = icmp ult i64 %2176, %2167
  br i1 %2177, label %2171, label %2168

2178:                                             ; preds = %2168
  %2179 = trunc i64 %2167 to i32
  %2180 = mul i32 %2179, 16320
  %2181 = getelementptr inbounds float, float* %207, i32 %2180
  call void @_Z12intrinsic_28Pffxxxxx(float* %2181, float 0.000000e+00, i64 %2169, i64 1, i64 1, i64 8, i64 0)
  br label %2183

2182:                                             ; preds = %2164
  call void @_Z12intrinsic_28Pffxxxxx(float* %207, float 0.000000e+00, i64 %954, i64 1, i64 1, i64 8, i64 0)
  br label %2183

2183:                                             ; preds = %2168, %2178, %2182
  call void @_Z11intrinsic_76pipe_t(i32 1)
  br i1 %972, label %2184, label %2214

2184:                                             ; preds = %2183
  br i1 %244, label %2185, label %2203

2185:                                             ; preds = %2184
  %2186 = add nsw i64 %958, %102
  br label %2187

2187:                                             ; preds = %2185, %2200
  %2188 = phi i64 [ 0, %2185 ], [ %2201, %2200 ]
  call void @_Z11intrinsic_76pipe_t(i32 1)
  call void @_Z11intrinsic_76pipe_t(i32 1)
  %2189 = trunc i64 %2188 to i32
  %2190 = shl i32 %2189, 6
  %2191 = getelementptr inbounds float, float* %207, i32 %2190
  %2192 = mul nsw i64 %2188, %86
  %2193 = add nsw i64 %2192, %958
  %2194 = trunc i64 %2193 to i32
  %2195 = getelementptr inbounds float, float* %195, i32 %2194
  call void @_Z12intrinsic_22PfS_S_xxxxxxx(float* %2191, float* %2195, float* %2191, i64 255, i64 1, i64 1, i64 1, i64 0, i64 8, i64 0)
  br i1 %246, label %2200, label %2196

2196:                                             ; preds = %2187
  call void @_Z11intrinsic_76pipe_t(i32 1)
  %2197 = add nsw i64 %2186, %2192
  %2198 = trunc i64 %2197 to i32
  %2199 = getelementptr inbounds float, float* %195, i32 %2198
  call void @_Z12intrinsic_22PfS_S_xxxxxxx(float* %2191, float* %2199, float* %2191, i64 %101, i64 1, i64 1, i64 1, i64 0, i64 8, i64 0)
  br label %2200

2200:                                             ; preds = %2187, %2196
  %2201 = add nuw nsw i64 %2188, 1
  %2202 = icmp ult i64 %2201, %954
  br i1 %2202, label %2187, label %2277

2203:                                             ; preds = %2184, %2203
  %2204 = phi i64 [ %2212, %2203 ], [ 0, %2184 ]
  call void @_Z11intrinsic_76pipe_t(i32 1)
  call void @_Z11intrinsic_76pipe_t(i32 1)
  call void @_Z11intrinsic_76pipe_t(i32 1)
  %2205 = trunc i64 %2204 to i32
  %2206 = shl i32 %2205, 6
  %2207 = getelementptr inbounds float, float* %207, i32 %2206
  %2208 = mul nsw i64 %2204, %86
  %2209 = add nsw i64 %2208, %958
  %2210 = trunc i64 %2209 to i32
  %2211 = getelementptr inbounds float, float* %195, i32 %2210
  call void @_Z12intrinsic_22PfS_S_xxxxxxx(float* %2207, float* %2211, float* %2207, i64 %81, i64 1, i64 1, i64 1, i64 0, i64 8, i64 0)
  %2212 = add nuw nsw i64 %2204, 1
  %2213 = icmp ult i64 %2212, %954
  br i1 %2213, label %2203, label %2277

2214:                                             ; preds = %2183
  br i1 %427, label %2215, label %2233

2215:                                             ; preds = %2214, %2219
  %2216 = phi i64 [ %2220, %2219 ], [ 0, %2214 ]
  call void @_Z11intrinsic_76pipe_t(i32 1)
  call void @_Z11intrinsic_76pipe_t(i32 1)
  %2217 = shl nsw i64 %2216, 6
  %2218 = add nsw i64 %2217, %958
  br label %2222

2219:                                             ; preds = %2222
  %2220 = add nuw nsw i64 %2216, 1
  %2221 = icmp slt i64 %2220, %81
  br i1 %2221, label %2215, label %2277

2222:                                             ; preds = %2215, %2222
  %2223 = phi i64 [ 0, %2215 ], [ %2231, %2222 ]
  call void @_Z11intrinsic_76pipe_t(i32 1)
  call void @_Z11intrinsic_76pipe_t(i32 1)
  %2224 = trunc i64 %2223 to i32
  %2225 = shl i32 %2224, 6
  %2226 = getelementptr inbounds float, float* %207, i32 %2225
  %2227 = mul nsw i64 %2223, %86
  %2228 = add nsw i64 %2218, %2227
  %2229 = trunc i64 %2228 to i32
  %2230 = getelementptr inbounds float, float* %195, i32 %2229
  call void @_Z12intrinsic_22PfS_S_xxxxxxx(float* %2226, float* %2230, float* %2226, i64 1, i64 1, i64 1, i64 1, i64 0, i64 0, i64 0)
  %2231 = add nuw nsw i64 %2223, 1
  %2232 = icmp ult i64 %2231, %954
  br i1 %2232, label %2222, label %2219

2233:                                             ; preds = %2214
  br i1 %2165, label %2235, label %2234

2234:                                             ; preds = %2233
  br i1 %243, label %2269, label %2277

2235:                                             ; preds = %2233
  br i1 %243, label %2236, label %2277

2236:                                             ; preds = %2235
  %2237 = udiv i64 %954, 255
  %2238 = urem i64 %954, 255
  %2239 = icmp eq i64 %2238, 0
  %2240 = trunc i64 %2237 to i32
  %2241 = mul i32 %2240, 16320
  %2242 = getelementptr inbounds float, float* %207, i32 %2241
  %2243 = mul i64 %2237, %133
  %2244 = add i64 %2243, %958
  br label %2245

2245:                                             ; preds = %2236, %2266
  %2246 = phi i64 [ 0, %2236 ], [ %2267, %2266 ]
  call void @_Z11intrinsic_76pipe_t(i32 1)
  call void @_Z11intrinsic_76pipe_t(i32 1)
  %2247 = shl nsw i64 %2246, 6
  %2248 = add nsw i64 %2247, %958
  br label %2250

2249:                                             ; preds = %2250
  br i1 %2239, label %2266, label %2261

2250:                                             ; preds = %2245, %2250
  %2251 = phi i64 [ 0, %2245 ], [ %2259, %2250 ]
  call void @_Z11intrinsic_76pipe_t(i32 1)
  %2252 = trunc i64 %2251 to i32
  %2253 = mul i32 %2252, 16320
  %2254 = getelementptr inbounds float, float* %207, i32 %2253
  %2255 = mul i64 %2251, %133
  %2256 = add i64 %2248, %2255
  %2257 = trunc i64 %2256 to i32
  %2258 = getelementptr inbounds float, float* %195, i32 %2257
  call void @_Z12intrinsic_22PfS_S_xxxxxxx(float* %2254, float* %2258, float* %2254, i64 255, i64 1, i64 1, i64 1, i64 8, i64 %71, i64 8)
  %2259 = add nuw nsw i64 %2251, 1
  %2260 = icmp ult i64 %2259, %2237
  br i1 %2260, label %2250, label %2249

2261:                                             ; preds = %2249
  call void @_Z11intrinsic_76pipe_t(i32 1)
  %2262 = shl nsw i64 %2246, 6
  %2263 = add i64 %2244, %2262
  %2264 = trunc i64 %2263 to i32
  %2265 = getelementptr inbounds float, float* %195, i32 %2264
  call void @_Z12intrinsic_22PfS_S_xxxxxxx(float* %2242, float* %2265, float* %2242, i64 %2238, i64 1, i64 1, i64 1, i64 8, i64 %71, i64 8)
  br label %2266

2266:                                             ; preds = %2249, %2261
  %2267 = add nuw nsw i64 %2246, 1
  %2268 = icmp slt i64 %2267, %81
  br i1 %2268, label %2245, label %2277

2269:                                             ; preds = %2234, %2269
  %2270 = phi i64 [ %2275, %2269 ], [ 0, %2234 ]
  call void @_Z11intrinsic_76pipe_t(i32 1)
  call void @_Z11intrinsic_76pipe_t(i32 1)
  call void @_Z11intrinsic_76pipe_t(i32 1)
  %2271 = shl nsw i64 %2270, 6
  %2272 = add nsw i64 %2271, %958
  %2273 = trunc i64 %2272 to i32
  %2274 = getelementptr inbounds float, float* %195, i32 %2273
  call void @_Z12intrinsic_22PfS_S_xxxxxxx(float* %207, float* %2274, float* %207, i64 %954, i64 1, i64 1, i64 1, i64 8, i64 %71, i64 8)
  %2275 = add nuw nsw i64 %2270, 1
  %2276 = icmp slt i64 %2275, %81
  br i1 %2276, label %2269, label %2277

2277:                                             ; preds = %2269, %2266, %2219, %2203, %2200, %2234, %2235
  br i1 %247, label %2278, label %2323

2278:                                             ; preds = %2277
  call void @_Z11intrinsic_1yy(i64 0, i64 %249)
  br i1 %507, label %2281, label %2279

2279:                                             ; preds = %2278
  %2280 = add nsw i64 %958, %105
  br label %2312

2281:                                             ; preds = %2278
  call void @_Z11intrinsic_76pipe_t(i32 1)
  call void @_Z11intrinsic_76pipe_t(i32 1)
  br i1 %2165, label %2282, label %2308

2282:                                             ; preds = %2281
  %2283 = udiv i64 %954, 255
  %2284 = add nsw i64 %958, %105
  br label %2288

2285:                                             ; preds = %2288
  %2286 = urem i64 %954, 255
  %2287 = icmp eq i64 %2286, 0
  br i1 %2287, label %2323, label %2299

2288:                                             ; preds = %2282, %2288
  %2289 = phi i64 [ 0, %2282 ], [ %2297, %2288 ]
  call void @_Z11intrinsic_76pipe_t(i32 1)
  %2290 = trunc i64 %2289 to i32
  %2291 = mul i32 %2290, 16320
  %2292 = getelementptr inbounds float, float* %207, i32 %2291
  %2293 = mul i64 %2289, %133
  %2294 = add i64 %2284, %2293
  %2295 = trunc i64 %2294 to i32
  %2296 = getelementptr inbounds float, float* %195, i32 %2295
  call void @_Z12intrinsic_22PfS_S_xxxxxxx(float* %2292, float* %2296, float* %2292, i64 255, i64 1, i64 1, i64 1, i64 8, i64 %71, i64 8)
  %2297 = add nuw nsw i64 %2289, 1
  %2298 = icmp ult i64 %2297, %2283
  br i1 %2298, label %2288, label %2285

2299:                                             ; preds = %2285
  call void @_Z11intrinsic_76pipe_t(i32 1)
  %2300 = trunc i64 %2283 to i32
  %2301 = mul i32 %2300, 16320
  %2302 = getelementptr inbounds float, float* %207, i32 %2301
  %2303 = add nsw i64 %958, %105
  %2304 = mul i64 %2283, %133
  %2305 = add i64 %2303, %2304
  %2306 = trunc i64 %2305 to i32
  %2307 = getelementptr inbounds float, float* %195, i32 %2306
  call void @_Z12intrinsic_22PfS_S_xxxxxxx(float* %2302, float* %2307, float* %2302, i64 %2286, i64 1, i64 1, i64 1, i64 8, i64 %71, i64 8)
  br label %2323

2308:                                             ; preds = %2281
  call void @_Z11intrinsic_76pipe_t(i32 1)
  %2309 = add nsw i64 %958, %105
  %2310 = trunc i64 %2309 to i32
  %2311 = getelementptr inbounds float, float* %195, i32 %2310
  call void @_Z12intrinsic_22PfS_S_xxxxxxx(float* %207, float* %2311, float* %207, i64 %954, i64 1, i64 1, i64 1, i64 8, i64 %71, i64 8)
  br label %2323

2312:                                             ; preds = %2279, %2312
  %2313 = phi i64 [ 0, %2279 ], [ %2321, %2312 ]
  call void @_Z11intrinsic_76pipe_t(i32 1)
  call void @_Z11intrinsic_76pipe_t(i32 1)
  call void @_Z11intrinsic_76pipe_t(i32 1)
  %2314 = trunc i64 %2313 to i32
  %2315 = shl i32 %2314, 6
  %2316 = getelementptr inbounds float, float* %207, i32 %2315
  %2317 = mul nsw i64 %2313, %86
  %2318 = add nsw i64 %2280, %2317
  %2319 = trunc i64 %2318 to i32
  %2320 = getelementptr inbounds float, float* %195, i32 %2319
  call void @_Z12intrinsic_22PfS_S_xxxxxxx(float* %2316, float* %2320, float* %2316, i64 1, i64 1, i64 1, i64 1, i64 0, i64 0, i64 0)
  %2321 = add nuw nsw i64 %2313, 1
  %2322 = icmp ult i64 %2321, %954
  br i1 %2322, label %2312, label %2323

2323:                                             ; preds = %2312, %2285, %2308, %2299, %2277
  call void @_Z11intrinsic_1yy(i64 0, i64 -1)
  %2324 = icmp sgt i64 %954, 240
  br i1 %2324, label %2325, label %2349

2325:                                             ; preds = %2323
  %2326 = udiv i64 %954, 240
  br label %2330

2327:                                             ; preds = %2330
  %2328 = urem i64 %954, 240
  %2329 = icmp eq i64 %2328, 0
  br i1 %2329, label %2389, label %2341

2330:                                             ; preds = %2325, %2330
  %2331 = phi i64 [ %2339, %2330 ], [ 0, %2325 ]
  call void @_Z11intrinsic_76pipe_t(i32 1)
  %2332 = mul nuw nsw i64 %2331, 240
  %2333 = add nuw nsw i64 %2332, %957
  %2334 = trunc i64 %2333 to i32
  %2335 = getelementptr inbounds float, float* %198, i32 %2334
  %2336 = trunc i64 %2331 to i32
  %2337 = mul i32 %2336, 15360
  %2338 = getelementptr inbounds float, float* %207, i32 %2337
  call void @_Z12intrinsic_24PfS_xxxx(float* %2335, float* %2338, i64 240, i64 1, i64 1, i64 8)
  %2339 = add nuw nsw i64 %2331, 1
  %2340 = icmp ult i64 %2339, %2326
  br i1 %2340, label %2330, label %2327

2341:                                             ; preds = %2327
  call void @_Z11intrinsic_76pipe_t(i32 1)
  %2342 = mul nuw nsw i64 %2326, 240
  %2343 = add nuw nsw i64 %2342, %957
  %2344 = trunc i64 %2343 to i32
  %2345 = getelementptr inbounds float, float* %198, i32 %2344
  %2346 = trunc i64 %2326 to i32
  %2347 = mul i32 %2346, 15360
  %2348 = getelementptr inbounds float, float* %207, i32 %2347
  call void @_Z12intrinsic_24PfS_xxxx(float* %2345, float* %2348, i64 %2328, i64 1, i64 1, i64 8)
  br label %2389

2349:                                             ; preds = %2323
  call void @_Z11intrinsic_76pipe_t(i32 1)
  %2350 = trunc i64 %957 to i32
  %2351 = getelementptr inbounds float, float* %198, i32 %2350
  %2352 = and i64 %954, 255
  call void @_Z12intrinsic_24PfS_xxxx(float* %2351, float* %207, i64 %2352, i64 1, i64 1, i64 8)
  br label %2389

2353:                                             ; preds = %2163
  call void @_Z11intrinsic_1yy(i64 0, i64 %479)
  %2354 = icmp sgt i64 %954, 240
  br i1 %2354, label %2355, label %2383

2355:                                             ; preds = %2353
  %2356 = freeze i64 %954
  %2357 = udiv i64 %2356, 240
  br label %2362

2358:                                             ; preds = %2362
  %2359 = mul i64 %2357, 240
  %2360 = sub i64 %2356, %2359
  %2361 = icmp eq i64 %2360, 0
  br i1 %2361, label %2389, label %2374

2362:                                             ; preds = %2355, %2362
  %2363 = phi i64 [ %2372, %2362 ], [ 0, %2355 ]
  call void @_Z11intrinsic_76pipe_t(i32 1)
  %2364 = mul nuw nsw i64 %2363, 240
  %2365 = add nuw nsw i64 %2364, %957
  %2366 = trunc i64 %2365 to i32
  %2367 = getelementptr inbounds float, float* %198, i32 %2366
  %2368 = mul i64 %2363, %147
  %2369 = add i64 %2368, %958
  %2370 = trunc i64 %2369 to i32
  %2371 = getelementptr inbounds float, float* %195, i32 %2370
  call void @_Z12intrinsic_24PfS_xxxx(float* %2367, float* %2371, i64 240, i64 1, i64 1, i64 %506)
  %2372 = add nuw nsw i64 %2363, 1
  %2373 = icmp ult i64 %2372, %2357
  br i1 %2373, label %2362, label %2358

2374:                                             ; preds = %2358
  call void @_Z11intrinsic_76pipe_t(i32 1)
  %2375 = mul nuw nsw i64 %2357, 240
  %2376 = add nuw nsw i64 %2375, %957
  %2377 = trunc i64 %2376 to i32
  %2378 = getelementptr inbounds float, float* %198, i32 %2377
  %2379 = mul i64 %2357, %147
  %2380 = add i64 %958, %2379
  %2381 = trunc i64 %2380 to i32
  %2382 = getelementptr inbounds float, float* %195, i32 %2381
  call void @_Z12intrinsic_24PfS_xxxx(float* %2378, float* %2382, i64 %2360, i64 1, i64 1, i64 %506)
  br label %2389

2383:                                             ; preds = %2353
  call void @_Z11intrinsic_76pipe_t(i32 1)
  %2384 = trunc i64 %957 to i32
  %2385 = getelementptr inbounds float, float* %198, i32 %2384
  %2386 = trunc i64 %958 to i32
  %2387 = getelementptr inbounds float, float* %195, i32 %2386
  %2388 = and i64 %954, 255
  call void @_Z12intrinsic_24PfS_xxxx(float* %2385, float* %2387, i64 %2388, i64 1, i64 1, i64 %506)
  br label %2389

2389:                                             ; preds = %2117, %2137, %2327, %2358, %2162, %2383, %2374, %2349, %2341, %2129, %2133, %2150, %2157
  call void @_Z12intrinsic_266pipe_tS_9EventType(i32 1, i32 0, i32 0)
  call void @_Z12intrinsic_276pipe_tS_9EventType(i32 1, i32 0, i32 0)
  br i1 %961, label %2390, label %2669

2390:                                             ; preds = %2389
  call void @_Z11intrinsic_1yy(i64 0, i64 65535)
  call void @_Z12intrinsic_28Pssxxxxx(i16* %210, i16 signext 0, i64 1, i64 0, i64 0, i64 0, i64 0)
  %2391 = lshr i64 %962, 7
  %2392 = icmp eq i64 %2391, 0
  br i1 %2392, label %2393, label %2395

2393:                                             ; preds = %2492, %2390
  %2394 = icmp eq i64 %963, 0
  br i1 %2394, label %2669, label %2495

2395:                                             ; preds = %2390, %2492
  %2396 = phi i64 [ %2493, %2492 ], [ 0, %2390 ]
  %2397 = trunc i64 %2396 to i32
  %2398 = shl i32 %2397, 8
  %2399 = getelementptr inbounds i16, i16* %259, i32 %2398
  call void @_Z12intrinsic_17PtS_(i16* %258, i16* %2399)
  call void @_Z11intrinsic_1yy(i64 -1, i64 -1)
  call void @_Z11intrinsic_76pipe_t(i32 1)
  call void @_Z12intrinsic_18PsS_S_xxxxxxx(i16* %260, i16* %258, i16* %210, i64 8, i64 1, i64 1, i64 0, i64 16, i64 0, i64 0)
  call void @_Z12intrinsic_18PsS_S_xxxxxxx(i16* nonnull %261, i16* nonnull %262, i16* %210, i64 8, i64 1, i64 1, i64 0, i64 16, i64 0, i64 0)
  call void @llvm.lifetime.start.p0i8(i64 64, i8* nonnull %520) #4
  store i64 %265, i64* %521, align 8, !tbaa !7
  store i64 %268, i64* %522, align 8, !tbaa !7
  store i64 %272, i64* %523, align 8, !tbaa !7
  store i64 %276, i64* %524, align 8, !tbaa !7
  store i64 %280, i64* %525, align 8, !tbaa !7
  store i64 %284, i64* %526, align 8, !tbaa !7
  store i64 %288, i64* %527, align 8, !tbaa !7
  store i64 %292, i64* %528, align 8, !tbaa !7
  call void @_Z12intrinsic_2510ub_addr8_tPy(i32 0, i64* nonnull %521)
  call void @llvm.lifetime.start.p0i8(i64 64, i8* nonnull %529) #4
  store i64 %297, i64* %530, align 8, !tbaa !7
  store i64 %301, i64* %531, align 8, !tbaa !7
  store i64 %305, i64* %532, align 8, !tbaa !7
  store i64 %309, i64* %533, align 8, !tbaa !7
  store i64 %313, i64* %534, align 8, !tbaa !7
  store i64 %317, i64* %535, align 8, !tbaa !7
  store i64 %321, i64* %536, align 8, !tbaa !7
  store i64 %325, i64* %537, align 8, !tbaa !7
  call void @_Z12intrinsic_2510ub_addr8_tPy(i32 1, i64* nonnull %530)
  call void @llvm.lifetime.start.p0i8(i64 64, i8* nonnull %538) #4
  store i64 %328, i64* %539, align 8, !tbaa !7
  store i64 %332, i64* %540, align 8, !tbaa !7
  store i64 %336, i64* %541, align 8, !tbaa !7
  store i64 %340, i64* %542, align 8, !tbaa !7
  store i64 %344, i64* %543, align 8, !tbaa !7
  store i64 %348, i64* %544, align 8, !tbaa !7
  store i64 %352, i64* %545, align 8, !tbaa !7
  store i64 %356, i64* %546, align 8, !tbaa !7
  call void @_Z12intrinsic_2510ub_addr8_tPy(i32 2, i64* nonnull %539)
  call void @llvm.lifetime.start.p0i8(i64 64, i8* nonnull %547) #4
  store i64 %361, i64* %548, align 8, !tbaa !7
  store i64 %365, i64* %549, align 8, !tbaa !7
  store i64 %369, i64* %550, align 8, !tbaa !7
  store i64 %373, i64* %551, align 8, !tbaa !7
  store i64 %377, i64* %552, align 8, !tbaa !7
  store i64 %381, i64* %553, align 8, !tbaa !7
  store i64 %385, i64* %554, align 8, !tbaa !7
  store i64 %389, i64* %555, align 8, !tbaa !7
  call void @_Z12intrinsic_2510ub_addr8_tPy(i32 3, i64* nonnull %548)
  call void @_Z11intrinsic_76pipe_t(i32 1)
  call void @_Z12intrinsic_1910ub_addr8_tS_xxx(i32 0, i32 2, i64 8, i64 1, i64 2)
  call void @_Z11intrinsic_76pipe_t(i32 1)
  br i1 %390, label %2400, label %2484

2400:                                             ; preds = %2395
  %2401 = mul nsw i64 %2396, %71
  %2402 = shl nsw i64 %2401, 11
  br i1 %401, label %2403, label %2424

2403:                                             ; preds = %2400, %2409
  %2404 = phi i64 [ %2410, %2409 ], [ 0, %2400 ]
  br i1 %422, label %2405, label %2409

2405:                                             ; preds = %2403
  %2406 = mul nsw i64 %2404, %406
  %2407 = add nsw i64 %2406, %2402
  %2408 = mul nuw nsw i64 %2404, %180
  br label %2412

2409:                                             ; preds = %2412, %2403
  %2410 = add nuw nsw i64 %2404, 1
  %2411 = icmp slt i64 %2410, %107
  br i1 %2411, label %2403, label %2455

2412:                                             ; preds = %2405, %2412
  %2413 = phi i64 [ 0, %2405 ], [ %2422, %2412 ]
  call void @_Z11intrinsic_76pipe_t(i32 1)
  %2414 = mul nsw i64 %2413, %424
  %2415 = add nsw i64 %2407, %2414
  %2416 = trunc i64 %2415 to i32
  %2417 = getelementptr inbounds i16, i16* %400, i32 %2416
  %2418 = mul nuw nsw i64 %2413, %183
  %2419 = add nuw nsw i64 %2418, %2408
  %2420 = trunc i64 %2419 to i32
  %2421 = getelementptr inbounds i16, i16* %258, i32 %2420
  call void @_Z12intrinsic_18PsS_S_xxxxxxx(i16* %2417, i16* %2421, i16* %210, i64 1, i64 1, i64 0, i64 0, i64 0, i64 0, i64 0)
  %2422 = add nuw nsw i64 %2413, 1
  %2423 = icmp slt i64 %2422, %181
  br i1 %2423, label %2412, label %2409

2424:                                             ; preds = %2400
  br i1 %402, label %2425, label %2444

2425:                                             ; preds = %2424, %2441
  %2426 = phi i64 [ %2442, %2441 ], [ 0, %2424 ]
  %2427 = mul nsw i64 %2426, %406
  %2428 = add nsw i64 %2427, %2402
  %2429 = trunc i64 %2428 to i32
  %2430 = getelementptr inbounds i16, i16* %400, i32 %2429
  %2431 = mul nuw nsw i64 %2426, %180
  %2432 = trunc i64 %2431 to i32
  %2433 = getelementptr inbounds i16, i16* %258, i32 %2432
  call void @_Z12intrinsic_18PsS_S_xxxxxxx(i16* %2430, i16* %2433, i16* %210, i64 255, i64 1, i64 0, i64 0, i64 %407, i64 %408, i64 0)
  br i1 %413, label %2441, label %2434

2434:                                             ; preds = %2425
  %2435 = add i64 %2428, %417
  %2436 = trunc i64 %2435 to i32
  %2437 = getelementptr inbounds i16, i16* %400, i32 %2436
  %2438 = add nsw i64 %2431, %421
  %2439 = trunc i64 %2438 to i32
  %2440 = getelementptr inbounds i16, i16* %258, i32 %2439
  call void @_Z12intrinsic_18PsS_S_xxxxxxx(i16* %2437, i16* %2440, i16* %210, i64 %412, i64 1, i64 0, i64 0, i64 %407, i64 %408, i64 0)
  br label %2441

2441:                                             ; preds = %2425, %2434
  %2442 = add nuw nsw i64 %2426, 1
  %2443 = icmp slt i64 %2442, %107
  br i1 %2443, label %2425, label %2455

2444:                                             ; preds = %2424, %2444
  %2445 = phi i64 [ %2453, %2444 ], [ 0, %2424 ]
  %2446 = mul nsw i64 %2445, %406
  %2447 = add nsw i64 %2446, %2402
  %2448 = trunc i64 %2447 to i32
  %2449 = getelementptr inbounds i16, i16* %400, i32 %2448
  %2450 = mul nuw nsw i64 %2445, %180
  %2451 = trunc i64 %2450 to i32
  %2452 = getelementptr inbounds i16, i16* %258, i32 %2451
  call void @_Z12intrinsic_18PsS_S_xxxxxxx(i16* %2449, i16* %2452, i16* %210, i64 %181, i64 1, i64 0, i64 0, i64 %407, i64 %408, i64 0)
  %2453 = add nuw nsw i64 %2445, 1
  %2454 = icmp slt i64 %2453, %107
  br i1 %2454, label %2444, label %2455

2455:                                             ; preds = %2444, %2441, %2409
  br i1 %426, label %2492, label %2456

2456:                                             ; preds = %2455
  br i1 %427, label %2457, label %2475

2457:                                             ; preds = %2456
  %2458 = mul nsw i64 %2396, %71
  %2459 = shl nsw i64 %2458, 11
  %2460 = add nsw i64 %2459, %114
  br label %2461

2461:                                             ; preds = %2457, %2465
  %2462 = phi i64 [ 0, %2457 ], [ %2473, %2465 ]
  call void @_Z11intrinsic_76pipe_t(i32 1)
  br i1 %428, label %2463, label %2464

2463:                                             ; preds = %2461
  call void @_Z11intrinsic_1yy(i64 %436, i64 -1)
  br label %2465

2464:                                             ; preds = %2461
  call void @_Z11intrinsic_1yy(i64 0, i64 %432)
  br label %2465

2465:                                             ; preds = %2464, %2463
  %2466 = mul nsw i64 %2462, %72
  %2467 = add nsw i64 %2460, %2466
  %2468 = trunc i64 %2467 to i32
  %2469 = getelementptr inbounds i16, i16* %400, i32 %2468
  %2470 = trunc i64 %2462 to i32
  %2471 = shl nuw nsw i32 %2470, 4
  %2472 = getelementptr inbounds i16, i16* %258, i32 %2471
  call void @_Z12intrinsic_18PsS_S_xxxxxxx(i16* %2469, i16* %2472, i16* %210, i64 1, i64 1, i64 0, i64 0, i64 0, i64 0, i64 0)
  %2473 = add nuw nsw i64 %2462, 1
  %2474 = icmp ult i64 %2462, 127
  br i1 %2474, label %2461, label %2492

2475:                                             ; preds = %2456
  br i1 %428, label %2476, label %2477

2476:                                             ; preds = %2475
  call void @_Z11intrinsic_1yy(i64 %436, i64 -1)
  br label %2478

2477:                                             ; preds = %2475
  call void @_Z11intrinsic_1yy(i64 0, i64 %432)
  br label %2478

2478:                                             ; preds = %2477, %2476
  %2479 = mul nsw i64 %2396, %71
  %2480 = shl nsw i64 %2479, 11
  %2481 = add nsw i64 %2480, %114
  %2482 = trunc i64 %2481 to i32
  %2483 = getelementptr inbounds i16, i16* %400, i32 %2482
  call void @_Z12intrinsic_18PsS_S_xxxxxxx(i16* %2483, i16* %258, i16* %210, i64 128, i64 1, i64 0, i64 0, i64 %71, i64 1, i64 0)
  br label %2492

2484:                                             ; preds = %2395
  br i1 %391, label %2485, label %2486

2485:                                             ; preds = %2484
  call void @_Z11intrinsic_1yy(i64 %399, i64 -1)
  br label %2487

2486:                                             ; preds = %2484
  call void @_Z11intrinsic_1yy(i64 0, i64 %395)
  br label %2487

2487:                                             ; preds = %2486, %2485
  %2488 = mul nsw i64 %2396, %71
  %2489 = trunc i64 %2488 to i32
  %2490 = shl i32 %2489, 11
  %2491 = getelementptr inbounds i16, i16* %400, i32 %2490
  call void @_Z12intrinsic_18PsS_S_xxxxxxx(i16* %2491, i16* %258, i16* %210, i64 128, i64 1, i64 0, i64 0, i64 %71, i64 1, i64 0)
  br label %2492

2492:                                             ; preds = %2465, %2455, %2478, %2487
  call void @llvm.lifetime.end.p0i8(i64 64, i8* nonnull %547) #4
  call void @llvm.lifetime.end.p0i8(i64 64, i8* nonnull %538) #4
  call void @llvm.lifetime.end.p0i8(i64 64, i8* nonnull %529) #4
  call void @llvm.lifetime.end.p0i8(i64 64, i8* nonnull %520) #4
  %2493 = add nuw nsw i64 %2396, 1
  %2494 = icmp ult i64 %2493, %2391
  br i1 %2494, label %2395, label %2393

2495:                                             ; preds = %2393
  %2496 = icmp ult i64 %963, 33
  br i1 %2496, label %2497, label %2540

2497:                                             ; preds = %2495
  call void @_Z12intrinsic_266pipe_tS_9EventType(i32 4, i32 0, i32 0)
  call void @_Z12intrinsic_276pipe_tS_9EventType(i32 4, i32 0, i32 0)
  call void @_Z12intrinsic_266pipe_tS_9EventType(i32 1, i32 0, i32 0)
  call void @_Z12intrinsic_276pipe_tS_9EventType(i32 1, i32 0, i32 0)
  br i1 %403, label %2498, label %2525

2498:                                             ; preds = %2497
  call void @_Z11intrinsic_1yy(i64 -1, i64 -1)
  %2499 = and i64 %962, 9223372036854775680
  br label %2500

2500:                                             ; preds = %2498, %2522
  %2501 = phi i64 [ 0, %2498 ], [ %2523, %2522 ]
  %2502 = add nuw nsw i64 %2501, %2499
  %2503 = trunc i64 %2502 to i32
  %2504 = getelementptr inbounds float, float* %198, i32 %2503
  %2505 = load float, float* %2504, align 4, !tbaa !9
  br i1 %473, label %2506, label %2508

2506:                                             ; preds = %2500
  %2507 = mul nsw i64 %2502, %86
  br label %2509

2508:                                             ; preds = %2509, %2500
  br i1 %474, label %2522, label %2517

2509:                                             ; preds = %2506, %2509
  %2510 = phi i64 [ 0, %2506 ], [ %2515, %2509 ]
  %2511 = mul nuw nsw i64 %2510, 16320
  %2512 = add nsw i64 %2511, %2507
  %2513 = trunc i64 %2512 to i32
  %2514 = getelementptr inbounds float, float* %207, i32 %2513
  call void @_Z12intrinsic_28Pffxxxxx(float* %2514, float %2505, i64 255, i64 1, i64 0, i64 8, i64 0)
  %2515 = add nuw nsw i64 %2510, 1
  %2516 = icmp slt i64 %2515, %120
  br i1 %2516, label %2509, label %2508

2517:                                             ; preds = %2508
  %2518 = mul nsw i64 %2502, %86
  %2519 = add nsw i64 %2518, %124
  %2520 = trunc i64 %2519 to i32
  %2521 = getelementptr inbounds float, float* %207, i32 %2520
  call void @_Z12intrinsic_28Pffxxxxx(float* %2521, float %2505, i64 %123, i64 1, i64 0, i64 8, i64 0)
  br label %2522

2522:                                             ; preds = %2508, %2517
  %2523 = add nuw nsw i64 %2501, 1
  %2524 = icmp ult i64 %2523, %963
  br i1 %2524, label %2500, label %2525

2525:                                             ; preds = %2522, %2497
  br i1 %475, label %2669, label %2526

2526:                                             ; preds = %2525
  call void @_Z11intrinsic_1yy(i64 0, i64 %477)
  %2527 = and i64 %962, 9223372036854775680
  br label %2528

2528:                                             ; preds = %2526, %2528
  %2529 = phi i64 [ 0, %2526 ], [ %2538, %2528 ]
  %2530 = add nuw nsw i64 %2529, %2527
  %2531 = trunc i64 %2530 to i32
  %2532 = getelementptr inbounds float, float* %198, i32 %2531
  %2533 = load float, float* %2532, align 4, !tbaa !9
  %2534 = mul nsw i64 %2530, %86
  %2535 = add nsw i64 %2534, %74
  %2536 = trunc i64 %2535 to i32
  %2537 = getelementptr inbounds float, float* %207, i32 %2536
  call void @_Z12intrinsic_28Pffxxxxx(float* %2537, float %2533, i64 1, i64 1, i64 0, i64 8, i64 0)
  %2538 = add nuw nsw i64 %2529, 1
  %2539 = icmp ult i64 %2538, %963
  br i1 %2539, label %2528, label %2669

2540:                                             ; preds = %2495
  %2541 = trunc i64 %962 to i32
  %2542 = and i32 %2541, -128
  %2543 = getelementptr inbounds float, float* %198, i32 %2542
  %2544 = add nuw nsw i64 %963, 7
  %2545 = lshr i64 %2544, 3
  call void @_Z12intrinsic_29PfS_xxxxx(float* %213, float* %2543, i64 0, i64 1, i64 %2545, i64 0, i64 0)
  call void @_Z11intrinsic_76pipe_t(i32 1)
  call void @_Z12intrinsic_17PtS_(i16* %258, i16* %260)
  call void @_Z11intrinsic_1yy(i64 -1, i64 -1)
  call void @_Z11intrinsic_76pipe_t(i32 1)
  call void @_Z12intrinsic_18PsS_S_xxxxxxx(i16* %260, i16* %258, i16* %210, i64 8, i64 1, i64 1, i64 0, i64 16, i64 0, i64 0)
  call void @_Z12intrinsic_18PsS_S_xxxxxxx(i16* nonnull %261, i16* nonnull %262, i16* %210, i64 8, i64 1, i64 1, i64 0, i64 16, i64 0, i64 0)
  call void @llvm.lifetime.start.p0i8(i64 64, i8* nonnull %556) #4
  store i64 %265, i64* %557, align 8, !tbaa !7
  store i64 %268, i64* %558, align 8, !tbaa !7
  store i64 %272, i64* %559, align 8, !tbaa !7
  store i64 %276, i64* %560, align 8, !tbaa !7
  store i64 %280, i64* %561, align 8, !tbaa !7
  store i64 %284, i64* %562, align 8, !tbaa !7
  store i64 %288, i64* %563, align 8, !tbaa !7
  store i64 %292, i64* %564, align 8, !tbaa !7
  call void @_Z12intrinsic_2510ub_addr8_tPy(i32 0, i64* nonnull %557)
  call void @llvm.lifetime.start.p0i8(i64 64, i8* nonnull %565) #4
  store i64 %297, i64* %566, align 8, !tbaa !7
  store i64 %301, i64* %567, align 8, !tbaa !7
  store i64 %305, i64* %568, align 8, !tbaa !7
  store i64 %309, i64* %569, align 8, !tbaa !7
  store i64 %313, i64* %570, align 8, !tbaa !7
  store i64 %317, i64* %571, align 8, !tbaa !7
  store i64 %321, i64* %572, align 8, !tbaa !7
  store i64 %325, i64* %573, align 8, !tbaa !7
  call void @_Z12intrinsic_2510ub_addr8_tPy(i32 1, i64* nonnull %566)
  call void @llvm.lifetime.start.p0i8(i64 64, i8* nonnull %574) #4
  store i64 %328, i64* %575, align 8, !tbaa !7
  store i64 %332, i64* %576, align 8, !tbaa !7
  store i64 %336, i64* %577, align 8, !tbaa !7
  store i64 %340, i64* %578, align 8, !tbaa !7
  store i64 %344, i64* %579, align 8, !tbaa !7
  store i64 %348, i64* %580, align 8, !tbaa !7
  store i64 %352, i64* %581, align 8, !tbaa !7
  store i64 %356, i64* %582, align 8, !tbaa !7
  call void @_Z12intrinsic_2510ub_addr8_tPy(i32 2, i64* nonnull %575)
  call void @llvm.lifetime.start.p0i8(i64 64, i8* nonnull %583) #4
  store i64 %361, i64* %584, align 8, !tbaa !7
  store i64 %365, i64* %585, align 8, !tbaa !7
  store i64 %369, i64* %586, align 8, !tbaa !7
  store i64 %373, i64* %587, align 8, !tbaa !7
  store i64 %377, i64* %588, align 8, !tbaa !7
  store i64 %381, i64* %589, align 8, !tbaa !7
  store i64 %385, i64* %590, align 8, !tbaa !7
  store i64 %389, i64* %591, align 8, !tbaa !7
  call void @_Z12intrinsic_2510ub_addr8_tPy(i32 3, i64* nonnull %584)
  call void @_Z11intrinsic_76pipe_t(i32 1)
  call void @_Z12intrinsic_1910ub_addr8_tS_xxx(i32 0, i32 2, i64 8, i64 1, i64 2)
  call void @_Z11intrinsic_76pipe_t(i32 1)
  br i1 %390, label %2546, label %2660

2546:                                             ; preds = %2540
  %2547 = icmp sgt i64 %968, 4080
  br i1 %2547, label %2548, label %2578

2548:                                             ; preds = %2546
  %2549 = select i1 %964, i64 %73, i64 %963
  %2550 = icmp sgt i64 %967, 0
  %2551 = mul nsw i64 %2391, %71
  %2552 = shl nsw i64 %2551, 11
  %2553 = shl i64 %965, 32
  %2554 = ashr exact i64 %2553, 32
  %2555 = shl i64 %968, 32
  %2556 = ashr exact i64 %2555, 32
  br label %2557

2557:                                             ; preds = %2548, %2563
  %2558 = phi i64 [ 0, %2548 ], [ %2564, %2563 ]
  br i1 %2550, label %2559, label %2563

2559:                                             ; preds = %2557
  %2560 = mul nsw i64 %2558, %2554
  %2561 = add nsw i64 %2560, %2552
  %2562 = mul nuw nsw i64 %2558, %966
  br label %2566

2563:                                             ; preds = %2566, %2557
  %2564 = add nuw nsw i64 %2558, 1
  %2565 = icmp slt i64 %2564, %2549
  br i1 %2565, label %2557, label %2631

2566:                                             ; preds = %2559, %2566
  %2567 = phi i64 [ 0, %2559 ], [ %2576, %2566 ]
  call void @_Z11intrinsic_76pipe_t(i32 1)
  %2568 = mul nsw i64 %2567, %2556
  %2569 = add nsw i64 %2561, %2568
  %2570 = trunc i64 %2569 to i32
  %2571 = getelementptr inbounds i16, i16* %400, i32 %2570
  %2572 = mul nuw nsw i64 %2567, %969
  %2573 = add nuw nsw i64 %2572, %2562
  %2574 = trunc i64 %2573 to i32
  %2575 = getelementptr inbounds i16, i16* %258, i32 %2574
  call void @_Z12intrinsic_18PsS_S_xxxxxxx(i16* %2571, i16* %2575, i16* %210, i64 1, i64 1, i64 0, i64 0, i64 0, i64 0, i64 0)
  %2576 = add nuw nsw i64 %2567, 1
  %2577 = icmp ult i64 %2576, %967
  br i1 %2577, label %2566, label %2563

2578:                                             ; preds = %2546
  %2579 = icmp sgt i64 %967, 255
  %2580 = select i1 %964, i64 %73, i64 %963
  %2581 = mul nsw i64 %2391, %71
  %2582 = shl nsw i64 %2581, 11
  %2583 = shl i64 %965, 32
  %2584 = ashr exact i64 %2583, 32
  %2585 = sdiv i64 %968, 16
  %2586 = lshr exact i64 %969, 4
  br i1 %2579, label %2587, label %2620

2587:                                             ; preds = %2578
  %2588 = freeze i64 %967
  %2589 = udiv i64 %2588, 255
  %2590 = mul i64 %2589, 255
  %2591 = sub i64 %2588, %2590
  %2592 = icmp eq i64 %2591, 0
  %2593 = trunc i64 %968 to i32
  %2594 = mul i32 %2593, 255
  %2595 = zext i32 %2594 to i64
  %2596 = mul i64 %2589, %2595
  %2597 = trunc i64 %969 to i32
  %2598 = mul nuw nsw i32 %2597, 255
  %2599 = zext i32 %2598 to i64
  %2600 = mul nsw i64 %2589, %2599
  br label %2601

2601:                                             ; preds = %2587, %2617
  %2602 = phi i64 [ 0, %2587 ], [ %2618, %2617 ]
  %2603 = mul nsw i64 %2602, %2584
  %2604 = add nsw i64 %2603, %2582
  %2605 = trunc i64 %2604 to i32
  %2606 = getelementptr inbounds i16, i16* %400, i32 %2605
  %2607 = mul nuw nsw i64 %2602, %966
  %2608 = trunc i64 %2607 to i32
  %2609 = getelementptr inbounds i16, i16* %258, i32 %2608
  call void @_Z12intrinsic_18PsS_S_xxxxxxx(i16* %2606, i16* %2609, i16* %210, i64 255, i64 1, i64 0, i64 0, i64 %2585, i64 %2586, i64 0)
  br i1 %2592, label %2617, label %2610

2610:                                             ; preds = %2601
  %2611 = add i64 %2604, %2596
  %2612 = trunc i64 %2611 to i32
  %2613 = getelementptr inbounds i16, i16* %400, i32 %2612
  %2614 = add nuw nsw i64 %2607, %2600
  %2615 = trunc i64 %2614 to i32
  %2616 = getelementptr inbounds i16, i16* %258, i32 %2615
  call void @_Z12intrinsic_18PsS_S_xxxxxxx(i16* %2613, i16* %2616, i16* %210, i64 %2591, i64 1, i64 0, i64 0, i64 %2585, i64 %2586, i64 0)
  br label %2617

2617:                                             ; preds = %2601, %2610
  %2618 = add nuw nsw i64 %2602, 1
  %2619 = icmp slt i64 %2618, %2580
  br i1 %2619, label %2601, label %2631

2620:                                             ; preds = %2578, %2620
  %2621 = phi i64 [ %2629, %2620 ], [ 0, %2578 ]
  %2622 = mul nsw i64 %2621, %2584
  %2623 = add nsw i64 %2622, %2582
  %2624 = trunc i64 %2623 to i32
  %2625 = getelementptr inbounds i16, i16* %400, i32 %2624
  %2626 = mul nuw nsw i64 %2621, %966
  %2627 = trunc i64 %2626 to i32
  %2628 = getelementptr inbounds i16, i16* %258, i32 %2627
  call void @_Z12intrinsic_18PsS_S_xxxxxxx(i16* %2625, i16* %2628, i16* %210, i64 %967, i64 1, i64 0, i64 0, i64 %2585, i64 %2586, i64 0)
  %2629 = add nuw nsw i64 %2621, 1
  %2630 = icmp slt i64 %2629, %2580
  br i1 %2630, label %2620, label %2631

2631:                                             ; preds = %2620, %2617, %2563
  br i1 %426, label %2668, label %2632

2632:                                             ; preds = %2631
  br i1 %427, label %2633, label %2651

2633:                                             ; preds = %2632
  %2634 = mul nsw i64 %2391, %71
  %2635 = shl nsw i64 %2634, 11
  %2636 = add nsw i64 %2635, %114
  br label %2637

2637:                                             ; preds = %2633, %2641
  %2638 = phi i64 [ 0, %2633 ], [ %2649, %2641 ]
  call void @_Z11intrinsic_76pipe_t(i32 1)
  br i1 %428, label %2639, label %2640

2639:                                             ; preds = %2637
  call void @_Z11intrinsic_1yy(i64 %436, i64 -1)
  br label %2641

2640:                                             ; preds = %2637
  call void @_Z11intrinsic_1yy(i64 0, i64 %432)
  br label %2641

2641:                                             ; preds = %2640, %2639
  %2642 = mul nsw i64 %2638, %72
  %2643 = add nsw i64 %2636, %2642
  %2644 = trunc i64 %2643 to i32
  %2645 = getelementptr inbounds i16, i16* %400, i32 %2644
  %2646 = trunc i64 %2638 to i32
  %2647 = shl i32 %2646, 4
  %2648 = getelementptr inbounds i16, i16* %258, i32 %2647
  call void @_Z12intrinsic_18PsS_S_xxxxxxx(i16* %2645, i16* %2648, i16* %210, i64 1, i64 1, i64 0, i64 0, i64 0, i64 0, i64 0)
  %2649 = add nuw nsw i64 %2638, 1
  %2650 = icmp ult i64 %2649, %963
  br i1 %2650, label %2637, label %2668

2651:                                             ; preds = %2632
  br i1 %428, label %2652, label %2653

2652:                                             ; preds = %2651
  call void @_Z11intrinsic_1yy(i64 %436, i64 -1)
  br label %2654

2653:                                             ; preds = %2651
  call void @_Z11intrinsic_1yy(i64 0, i64 %432)
  br label %2654

2654:                                             ; preds = %2653, %2652
  %2655 = mul nsw i64 %2391, %71
  %2656 = shl nsw i64 %2655, 11
  %2657 = add nsw i64 %2656, %114
  %2658 = trunc i64 %2657 to i32
  %2659 = getelementptr inbounds i16, i16* %400, i32 %2658
  call void @_Z12intrinsic_18PsS_S_xxxxxxx(i16* %2659, i16* %258, i16* %210, i64 %963, i64 1, i64 0, i64 0, i64 %71, i64 1, i64 0)
  br label %2668

2660:                                             ; preds = %2540
  br i1 %391, label %2661, label %2662

2661:                                             ; preds = %2660
  call void @_Z11intrinsic_1yy(i64 %399, i64 -1)
  br label %2663

2662:                                             ; preds = %2660
  call void @_Z11intrinsic_1yy(i64 0, i64 %395)
  br label %2663

2663:                                             ; preds = %2662, %2661
  %2664 = mul nsw i64 %2391, %71
  %2665 = trunc i64 %2664 to i32
  %2666 = shl i32 %2665, 11
  %2667 = getelementptr inbounds i16, i16* %400, i32 %2666
  call void @_Z12intrinsic_18PsS_S_xxxxxxx(i16* %2667, i16* %258, i16* %210, i64 %963, i64 1, i64 0, i64 0, i64 %71, i64 1, i64 0)
  br label %2668

2668:                                             ; preds = %2641, %2631, %2654, %2663
  call void @llvm.lifetime.end.p0i8(i64 64, i8* nonnull %583) #4
  call void @llvm.lifetime.end.p0i8(i64 64, i8* nonnull %574) #4
  call void @llvm.lifetime.end.p0i8(i64 64, i8* nonnull %565) #4
  call void @llvm.lifetime.end.p0i8(i64 64, i8* nonnull %556) #4
  br label %2669

2669:                                             ; preds = %2528, %2525, %2393, %2668, %2389
  call void @_Z12intrinsic_266pipe_tS_9EventType(i32 0, i32 1, i32 0)
  call void @_Z12intrinsic_266pipe_tS_9EventType(i32 1, i32 0, i32 0)
  %2670 = load i64, i64* @block_idx, align 8, !tbaa !7
  %2671 = trunc i64 %2670 to i32
  %2672 = mul nsw i32 %63, %2671
  %2673 = sext i32 %2672 to i64
  %2674 = sub nsw i64 %951, %2673
  %2675 = icmp sgt i64 %2674, %79
  br i1 %2675, label %2676, label %2790

2676:                                             ; preds = %2669
  call void @_Z11intrinsic_76pipe_t(i32 1)
  br i1 %390, label %2677, label %2770

2677:                                             ; preds = %2676
  call void @_Z11intrinsic_1yy(i64 0, i64 -1)
  br i1 %484, label %2678, label %2696

2678:                                             ; preds = %2677
  br i1 %486, label %2679, label %2734

2679:                                             ; preds = %2678, %2684
  %2680 = phi i64 [ %2685, %2684 ], [ 0, %2678 ]
  call void @_Z11intrinsic_76pipe_t(i32 1)
  br i1 %497, label %2681, label %2684

2681:                                             ; preds = %2679
  %2682 = mul nsw i64 %2680, %489
  %2683 = add nsw i64 %2682, %958
  br label %2687

2684:                                             ; preds = %2687, %2679
  %2685 = add nuw nsw i64 %2680, 1
  %2686 = icmp slt i64 %2685, %85
  br i1 %2686, label %2679, label %2734

2687:                                             ; preds = %2681, %2687
  %2688 = phi i64 [ 0, %2681 ], [ %2694, %2687 ]
  call void @_Z11intrinsic_76pipe_t(i32 1)
  %2689 = mul nsw i64 %2688, %499
  %2690 = add nsw i64 %2683, %2689
  %2691 = trunc i64 %2690 to i32
  %2692 = getelementptr inbounds float, float* %195, i32 %2691
  %2693 = getelementptr inbounds float, float* %207, i32 %2691
  call void @_Z12intrinsic_23PfS_S_xxxxxxx(float* %2692, float* %2692, float* %2693, i64 1, i64 1, i64 1, i64 1, i64 0, i64 0, i64 0)
  %2694 = add nuw nsw i64 %2688, 1
  %2695 = icmp slt i64 %2694, %83
  br i1 %2695, label %2687, label %2684

2696:                                             ; preds = %2677
  br i1 %485, label %2698, label %2697

2697:                                             ; preds = %2696
  br i1 %486, label %2725, label %2734

2698:                                             ; preds = %2696
  br i1 %486, label %2699, label %2734

2699:                                             ; preds = %2698
  %2700 = add i64 %958, %496
  br label %2701

2701:                                             ; preds = %2699, %2722
  %2702 = phi i64 [ 0, %2699 ], [ %2723, %2722 ]
  call void @_Z11intrinsic_76pipe_t(i32 1)
  br i1 %491, label %2703, label %2706

2703:                                             ; preds = %2701
  %2704 = mul nsw i64 %2702, %489
  %2705 = add nsw i64 %2704, %958
  br label %2707

2706:                                             ; preds = %2707, %2701
  br i1 %495, label %2722, label %2716

2707:                                             ; preds = %2703, %2707
  %2708 = phi i64 [ 0, %2703 ], [ %2714, %2707 ]
  %2709 = mul i64 %2708, %494
  %2710 = add i64 %2705, %2709
  %2711 = trunc i64 %2710 to i32
  %2712 = getelementptr inbounds float, float* %195, i32 %2711
  %2713 = getelementptr inbounds float, float* %207, i32 %2711
  call void @_Z12intrinsic_23PfS_S_xxxxxxx(float* %2712, float* %2712, float* %2713, i64 255, i64 1, i64 1, i64 1, i64 %490, i64 %490, i64 %490)
  %2714 = add nuw nsw i64 %2708, 1
  %2715 = icmp slt i64 %2714, %126
  br i1 %2715, label %2707, label %2706

2716:                                             ; preds = %2706
  %2717 = mul nsw i64 %2702, %489
  %2718 = add i64 %2700, %2717
  %2719 = trunc i64 %2718 to i32
  %2720 = getelementptr inbounds float, float* %195, i32 %2719
  %2721 = getelementptr inbounds float, float* %207, i32 %2719
  call void @_Z12intrinsic_23PfS_S_xxxxxxx(float* %2720, float* %2720, float* %2721, i64 %128, i64 1, i64 1, i64 1, i64 %490, i64 %490, i64 %490)
  br label %2722

2722:                                             ; preds = %2706, %2716
  %2723 = add nuw nsw i64 %2702, 1
  %2724 = icmp slt i64 %2723, %85
  br i1 %2724, label %2701, label %2734

2725:                                             ; preds = %2697, %2725
  %2726 = phi i64 [ %2732, %2725 ], [ 0, %2697 ]
  call void @_Z11intrinsic_76pipe_t(i32 1)
  %2727 = mul nsw i64 %2726, %489
  %2728 = add nsw i64 %2727, %958
  %2729 = trunc i64 %2728 to i32
  %2730 = getelementptr inbounds float, float* %195, i32 %2729
  %2731 = getelementptr inbounds float, float* %207, i32 %2729
  call void @_Z12intrinsic_23PfS_S_xxxxxxx(float* %2730, float* %2730, float* %2731, i64 %83, i64 1, i64 1, i64 1, i64 %490, i64 %490, i64 %490)
  %2732 = add nuw nsw i64 %2726, 1
  %2733 = icmp slt i64 %2732, %85
  br i1 %2733, label %2725, label %2734

2734:                                             ; preds = %2725, %2722, %2684, %2697, %2698, %2678
  br i1 %480, label %2944, label %2735

2735:                                             ; preds = %2734
  call void @_Z11intrinsic_1yy(i64 0, i64 %249)
  br i1 %427, label %2736, label %2748

2736:                                             ; preds = %2735
  br i1 %241, label %2737, label %2944

2737:                                             ; preds = %2736
  %2738 = add nsw i64 %958, %105
  br label %2739

2739:                                             ; preds = %2737, %2739
  %2740 = phi i64 [ 0, %2737 ], [ %2746, %2739 ]
  call void @_Z11intrinsic_76pipe_t(i32 1)
  %2741 = mul nsw i64 %2740, %86
  %2742 = add nsw i64 %2738, %2741
  %2743 = trunc i64 %2742 to i32
  %2744 = getelementptr inbounds float, float* %195, i32 %2743
  %2745 = getelementptr inbounds float, float* %207, i32 %2743
  call void @_Z12intrinsic_23PfS_S_xxxxxxx(float* %2744, float* %2744, float* %2745, i64 1, i64 1, i64 1, i64 1, i64 0, i64 0, i64 0)
  %2746 = add nuw nsw i64 %2740, 1
  %2747 = icmp slt i64 %2746, %79
  br i1 %2747, label %2739, label %2944

2748:                                             ; preds = %2735
  %2749 = add nsw i64 %958, %105
  br i1 %481, label %2751, label %2766

2750:                                             ; preds = %2751
  br i1 %483, label %2944, label %2760

2751:                                             ; preds = %2748, %2751
  %2752 = phi i64 [ %2758, %2751 ], [ 0, %2748 ]
  %2753 = mul i64 %2752, %133
  %2754 = add i64 %2749, %2753
  %2755 = trunc i64 %2754 to i32
  %2756 = getelementptr inbounds float, float* %195, i32 %2755
  %2757 = getelementptr inbounds float, float* %207, i32 %2755
  call void @_Z12intrinsic_23PfS_S_xxxxxxx(float* %2756, float* %2756, float* %2757, i64 255, i64 1, i64 1, i64 1, i64 %71, i64 %71, i64 %71)
  %2758 = add nuw nsw i64 %2752, 1
  %2759 = icmp slt i64 %2758, %130
  br i1 %2759, label %2751, label %2750

2760:                                             ; preds = %2750
  %2761 = add nsw i64 %958, %105
  %2762 = add i64 %2761, %136
  %2763 = trunc i64 %2762 to i32
  %2764 = getelementptr inbounds float, float* %195, i32 %2763
  %2765 = getelementptr inbounds float, float* %207, i32 %2763
  call void @_Z12intrinsic_23PfS_S_xxxxxxx(float* %2764, float* %2764, float* %2765, i64 %135, i64 1, i64 1, i64 1, i64 %71, i64 %71, i64 %71)
  br label %2944

2766:                                             ; preds = %2748
  %2767 = trunc i64 %2749 to i32
  %2768 = getelementptr inbounds float, float* %195, i32 %2767
  %2769 = getelementptr inbounds float, float* %207, i32 %2767
  call void @_Z12intrinsic_23PfS_S_xxxxxxx(float* %2768, float* %2768, float* %2769, i64 %79, i64 1, i64 1, i64 1, i64 %71, i64 %71, i64 %71)
  br label %2944

2770:                                             ; preds = %2676
  call void @_Z11intrinsic_1yy(i64 0, i64 %479)
  br i1 %481, label %2772, label %2786

2771:                                             ; preds = %2772
  br i1 %483, label %2944, label %2781

2772:                                             ; preds = %2770, %2772
  %2773 = phi i64 [ %2779, %2772 ], [ 0, %2770 ]
  %2774 = mul i64 %2773, %133
  %2775 = add i64 %2774, %958
  %2776 = trunc i64 %2775 to i32
  %2777 = getelementptr inbounds float, float* %195, i32 %2776
  %2778 = getelementptr inbounds float, float* %207, i32 %2776
  call void @_Z12intrinsic_23PfS_S_xxxxxxx(float* %2777, float* %2777, float* %2778, i64 255, i64 1, i64 1, i64 1, i64 %71, i64 %71, i64 %71)
  %2779 = add nuw nsw i64 %2773, 1
  %2780 = icmp slt i64 %2779, %130
  br i1 %2780, label %2772, label %2771

2781:                                             ; preds = %2771
  %2782 = add i64 %958, %136
  %2783 = trunc i64 %2782 to i32
  %2784 = getelementptr inbounds float, float* %195, i32 %2783
  %2785 = getelementptr inbounds float, float* %207, i32 %2783
  call void @_Z12intrinsic_23PfS_S_xxxxxxx(float* %2784, float* %2784, float* %2785, i64 %135, i64 1, i64 1, i64 1, i64 %71, i64 %71, i64 %71)
  br label %2944

2786:                                             ; preds = %2770
  %2787 = trunc i64 %958 to i32
  %2788 = getelementptr inbounds float, float* %195, i32 %2787
  %2789 = getelementptr inbounds float, float* %207, i32 %2787
  call void @_Z12intrinsic_23PfS_S_xxxxxxx(float* %2788, float* %2788, float* %2789, i64 %79, i64 1, i64 1, i64 1, i64 %71, i64 %71, i64 %71)
  br label %2944

2790:                                             ; preds = %2669
  br i1 %953, label %2791, label %2944

2791:                                             ; preds = %2790
  call void @_Z11intrinsic_76pipe_t(i32 1)
  br i1 %390, label %2792, label %2916

2792:                                             ; preds = %2791
  call void @_Z11intrinsic_1yy(i64 0, i64 -1)
  %2793 = icmp sgt i64 %975, 2040
  br i1 %2793, label %2794, label %2819

2794:                                             ; preds = %2792
  %2795 = icmp sgt i64 %973, 0
  br i1 %2795, label %2796, label %2874

2796:                                             ; preds = %2794
  %2797 = icmp sgt i64 %971, 0
  %2798 = shl i64 %974, 32
  %2799 = ashr exact i64 %2798, 32
  %2800 = shl i64 %975, 32
  %2801 = ashr exact i64 %2800, 32
  br label %2802

2802:                                             ; preds = %2796, %2807
  %2803 = phi i64 [ 0, %2796 ], [ %2808, %2807 ]
  call void @_Z11intrinsic_76pipe_t(i32 1)
  br i1 %2797, label %2804, label %2807

2804:                                             ; preds = %2802
  %2805 = mul nsw i64 %2803, %2799
  %2806 = add nsw i64 %2805, %958
  br label %2810

2807:                                             ; preds = %2810, %2802
  %2808 = add nuw nsw i64 %2803, 1
  %2809 = icmp slt i64 %2808, %973
  br i1 %2809, label %2802, label %2874

2810:                                             ; preds = %2804, %2810
  %2811 = phi i64 [ 0, %2804 ], [ %2817, %2810 ]
  call void @_Z11intrinsic_76pipe_t(i32 1)
  %2812 = mul nsw i64 %2811, %2801
  %2813 = add nsw i64 %2806, %2812
  %2814 = trunc i64 %2813 to i32
  %2815 = getelementptr inbounds float, float* %195, i32 %2814
  %2816 = getelementptr inbounds float, float* %207, i32 %2814
  call void @_Z12intrinsic_23PfS_S_xxxxxxx(float* %2815, float* %2815, float* %2816, i64 1, i64 1, i64 1, i64 1, i64 0, i64 0, i64 0)
  %2817 = add nuw nsw i64 %2811, 1
  %2818 = icmp ult i64 %2817, %971
  br i1 %2818, label %2810, label %2807

2819:                                             ; preds = %2792
  %2820 = icmp sgt i64 %971, 255
  %2821 = icmp sgt i64 %973, 0
  br i1 %2820, label %2827, label %2822

2822:                                             ; preds = %2819
  br i1 %2821, label %2823, label %2874

2823:                                             ; preds = %2822
  %2824 = shl i64 %974, 32
  %2825 = ashr exact i64 %2824, 32
  %2826 = sdiv i64 %975, 8
  br label %2865

2827:                                             ; preds = %2819
  br i1 %2821, label %2828, label %2874

2828:                                             ; preds = %2827
  %2829 = freeze i64 %971
  %2830 = udiv i64 %2829, 255
  %2831 = shl i64 %974, 32
  %2832 = ashr exact i64 %2831, 32
  %2833 = trunc i64 %975 to i32
  %2834 = mul i32 %2833, 255
  %2835 = zext i32 %2834 to i64
  %2836 = sdiv i64 %975, 8
  %2837 = mul i64 %2830, 255
  %2838 = sub i64 %2829, %2837
  %2839 = icmp eq i64 %2838, 0
  %2840 = mul i64 %2830, %2835
  %2841 = add i64 %2840, %958
  br label %2842

2842:                                             ; preds = %2828, %2862
  %2843 = phi i64 [ 0, %2828 ], [ %2863, %2862 ]
  call void @_Z11intrinsic_76pipe_t(i32 1)
  %2844 = mul nsw i64 %2843, %2832
  %2845 = add nsw i64 %2844, %958
  br label %2847

2846:                                             ; preds = %2847
  br i1 %2839, label %2862, label %2856

2847:                                             ; preds = %2842, %2847
  %2848 = phi i64 [ 0, %2842 ], [ %2854, %2847 ]
  %2849 = mul i64 %2848, %2835
  %2850 = add i64 %2845, %2849
  %2851 = trunc i64 %2850 to i32
  %2852 = getelementptr inbounds float, float* %195, i32 %2851
  %2853 = getelementptr inbounds float, float* %207, i32 %2851
  call void @_Z12intrinsic_23PfS_S_xxxxxxx(float* %2852, float* %2852, float* %2853, i64 255, i64 1, i64 1, i64 1, i64 %2836, i64 %2836, i64 %2836)
  %2854 = add nuw nsw i64 %2848, 1
  %2855 = icmp ult i64 %2854, %2830
  br i1 %2855, label %2847, label %2846

2856:                                             ; preds = %2846
  %2857 = mul nsw i64 %2843, %2832
  %2858 = add i64 %2841, %2857
  %2859 = trunc i64 %2858 to i32
  %2860 = getelementptr inbounds float, float* %195, i32 %2859
  %2861 = getelementptr inbounds float, float* %207, i32 %2859
  call void @_Z12intrinsic_23PfS_S_xxxxxxx(float* %2860, float* %2860, float* %2861, i64 %2838, i64 1, i64 1, i64 1, i64 %2836, i64 %2836, i64 %2836)
  br label %2862

2862:                                             ; preds = %2846, %2856
  %2863 = add nuw nsw i64 %2843, 1
  %2864 = icmp slt i64 %2863, %973
  br i1 %2864, label %2842, label %2874

2865:                                             ; preds = %2823, %2865
  %2866 = phi i64 [ 0, %2823 ], [ %2872, %2865 ]
  call void @_Z11intrinsic_76pipe_t(i32 1)
  %2867 = mul nsw i64 %2866, %2825
  %2868 = add nsw i64 %2867, %958
  %2869 = trunc i64 %2868 to i32
  %2870 = getelementptr inbounds float, float* %195, i32 %2869
  %2871 = getelementptr inbounds float, float* %207, i32 %2869
  call void @_Z12intrinsic_23PfS_S_xxxxxxx(float* %2870, float* %2870, float* %2871, i64 %971, i64 1, i64 1, i64 1, i64 %2826, i64 %2826, i64 %2826)
  %2872 = add nuw nsw i64 %2866, 1
  %2873 = icmp slt i64 %2872, %973
  br i1 %2873, label %2865, label %2874

2874:                                             ; preds = %2865, %2862, %2807, %2822, %2827, %2794
  br i1 %480, label %2944, label %2875

2875:                                             ; preds = %2874
  call void @_Z11intrinsic_1yy(i64 0, i64 %249)
  br i1 %427, label %2876, label %2887

2876:                                             ; preds = %2875
  %2877 = add nsw i64 %958, %105
  br label %2878

2878:                                             ; preds = %2876, %2878
  %2879 = phi i64 [ 0, %2876 ], [ %2885, %2878 ]
  call void @_Z11intrinsic_76pipe_t(i32 1)
  %2880 = mul nsw i64 %2879, %86
  %2881 = add nsw i64 %2877, %2880
  %2882 = trunc i64 %2881 to i32
  %2883 = getelementptr inbounds float, float* %195, i32 %2882
  %2884 = getelementptr inbounds float, float* %207, i32 %2882
  call void @_Z12intrinsic_23PfS_S_xxxxxxx(float* %2883, float* %2883, float* %2884, i64 1, i64 1, i64 1, i64 1, i64 0, i64 0, i64 0)
  %2885 = add nuw nsw i64 %2879, 1
  %2886 = icmp ult i64 %2885, %954
  br i1 %2886, label %2878, label %2944

2887:                                             ; preds = %2875
  %2888 = icmp sgt i64 %954, 255
  br i1 %2888, label %2889, label %2911

2889:                                             ; preds = %2887
  %2890 = udiv i64 %954, 255
  %2891 = add nsw i64 %958, %105
  br label %2895

2892:                                             ; preds = %2895
  %2893 = urem i64 %954, 255
  %2894 = icmp eq i64 %2893, 0
  br i1 %2894, label %2944, label %2904

2895:                                             ; preds = %2889, %2895
  %2896 = phi i64 [ 0, %2889 ], [ %2902, %2895 ]
  %2897 = mul i64 %2896, %133
  %2898 = add i64 %2891, %2897
  %2899 = trunc i64 %2898 to i32
  %2900 = getelementptr inbounds float, float* %195, i32 %2899
  %2901 = getelementptr inbounds float, float* %207, i32 %2899
  call void @_Z12intrinsic_23PfS_S_xxxxxxx(float* %2900, float* %2900, float* %2901, i64 255, i64 1, i64 1, i64 1, i64 %71, i64 %71, i64 %71)
  %2902 = add nuw nsw i64 %2896, 1
  %2903 = icmp ult i64 %2902, %2890
  br i1 %2903, label %2895, label %2892

2904:                                             ; preds = %2892
  %2905 = add nsw i64 %958, %105
  %2906 = mul i64 %2890, %133
  %2907 = add i64 %2905, %2906
  %2908 = trunc i64 %2907 to i32
  %2909 = getelementptr inbounds float, float* %195, i32 %2908
  %2910 = getelementptr inbounds float, float* %207, i32 %2908
  call void @_Z12intrinsic_23PfS_S_xxxxxxx(float* %2909, float* %2909, float* %2910, i64 %2893, i64 1, i64 1, i64 1, i64 %71, i64 %71, i64 %71)
  br label %2944

2911:                                             ; preds = %2887
  %2912 = add nsw i64 %958, %105
  %2913 = trunc i64 %2912 to i32
  %2914 = getelementptr inbounds float, float* %195, i32 %2913
  %2915 = getelementptr inbounds float, float* %207, i32 %2913
  call void @_Z12intrinsic_23PfS_S_xxxxxxx(float* %2914, float* %2914, float* %2915, i64 %954, i64 1, i64 1, i64 1, i64 %71, i64 %71, i64 %71)
  br label %2944

2916:                                             ; preds = %2791
  call void @_Z11intrinsic_1yy(i64 0, i64 %479)
  %2917 = icmp sgt i64 %954, 255
  br i1 %2917, label %2918, label %2940

2918:                                             ; preds = %2916
  %2919 = freeze i64 %954
  %2920 = udiv i64 %2919, 255
  br label %2925

2921:                                             ; preds = %2925
  %2922 = mul i64 %2920, 255
  %2923 = sub i64 %2919, %2922
  %2924 = icmp eq i64 %2923, 0
  br i1 %2924, label %2944, label %2934

2925:                                             ; preds = %2918, %2925
  %2926 = phi i64 [ %2932, %2925 ], [ 0, %2918 ]
  %2927 = mul i64 %2926, %133
  %2928 = add i64 %2927, %958
  %2929 = trunc i64 %2928 to i32
  %2930 = getelementptr inbounds float, float* %195, i32 %2929
  %2931 = getelementptr inbounds float, float* %207, i32 %2929
  call void @_Z12intrinsic_23PfS_S_xxxxxxx(float* %2930, float* %2930, float* %2931, i64 255, i64 1, i64 1, i64 1, i64 %71, i64 %71, i64 %71)
  %2932 = add nuw nsw i64 %2926, 1
  %2933 = icmp ult i64 %2932, %2920
  br i1 %2933, label %2925, label %2921

2934:                                             ; preds = %2921
  %2935 = mul i64 %2920, %133
  %2936 = add i64 %958, %2935
  %2937 = trunc i64 %2936 to i32
  %2938 = getelementptr inbounds float, float* %195, i32 %2937
  %2939 = getelementptr inbounds float, float* %207, i32 %2937
  call void @_Z12intrinsic_23PfS_S_xxxxxxx(float* %2938, float* %2938, float* %2939, i64 %2923, i64 1, i64 1, i64 1, i64 %71, i64 %71, i64 %71)
  br label %2944

2940:                                             ; preds = %2916
  %2941 = trunc i64 %958 to i32
  %2942 = getelementptr inbounds float, float* %195, i32 %2941
  %2943 = getelementptr inbounds float, float* %207, i32 %2941
  call void @_Z12intrinsic_23PfS_S_xxxxxxx(float* %2942, float* %2942, float* %2943, i64 %954, i64 1, i64 1, i64 1, i64 %71, i64 %71, i64 %71)
  br label %2944

2944:                                             ; preds = %2878, %2739, %2736, %2750, %2734, %2771, %2892, %2874, %2921, %2790, %2940, %2934, %2911, %2904, %2760, %2766, %2781, %2786
  call void @_Z12intrinsic_266pipe_tS_9EventType(i32 1, i32 5, i32 0)
  call void @_Z12intrinsic_276pipe_tS_9EventType(i32 1, i32 0, i32 0)
  call void @_Z12intrinsic_276pipe_tS_9EventType(i32 0, i32 1, i32 0)
  call void @_Z12intrinsic_276pipe_tS_9EventType(i32 4, i32 5, i32 0)
  call void @_Z12intrinsic_276pipe_tS_9EventType(i32 1, i32 5, i32 0)
  %2945 = load i64, i64* @block_idx, align 8, !tbaa !7
  %2946 = trunc i64 %2945 to i32
  %2947 = mul nsw i32 %63, %2946
  %2948 = sext i32 %2947 to i64
  %2949 = sub nsw i64 %951, %2948
  %2950 = icmp sgt i64 %2949, %79
  %2951 = icmp sgt i64 %976, %79
  %2952 = and i1 %2951, %2950
  br i1 %2952, label %2953, label %3833

2953:                                             ; preds = %2944
  br i1 %981, label %2954, label %4714

2954:                                             ; preds = %2953
  call void @_Z11intrinsic_76pipe_t(i32 1)
  call void @_Z11intrinsic_76pipe_t(i32 5)
  %2955 = mul nsw i64 %982, %69
  %2956 = icmp sgt i64 %2955, 7
  %2957 = and i1 %592, %2956
  br i1 %2957, label %2958, label %3027

2958:                                             ; preds = %2954
  %2959 = sub nsw i64 %982, %149
  %2960 = icmp sgt i64 %2959, 0
  br i1 %2960, label %2966, label %2961

2961:                                             ; preds = %2966, %2958
  call void @_Z12intrinsic_266pipe_tS_9EventType(i32 5, i32 0, i32 0)
  call void @_Z12intrinsic_276pipe_tS_9EventType(i32 5, i32 0, i32 0)
  br i1 %753, label %2962, label %2980

2962:                                             ; preds = %2961
  %2963 = add nuw i64 %982, %957
  %2964 = shl i64 %2963, 3
  %2965 = add i64 %754, %2964
  br label %2983

2966:                                             ; preds = %2958, %2966
  %2967 = phi i64 [ %2978, %2966 ], [ 0, %2958 ]
  call void @_Z11intrinsic_76pipe_t(i32 5)
  %2968 = add nsw i64 %2967, %950
  %2969 = trunc i64 %2968 to i32
  %2970 = mul i32 %60, %2969
  %2971 = getelementptr inbounds float, float* %1, i32 %2970
  %2972 = bitcast float* %2971 to i8*
  %2973 = add nuw i64 %2967, %957
  %2974 = trunc i64 %2973 to i32
  %2975 = shl i32 %2974, 3
  %2976 = getelementptr inbounds float, float* %195, i32 %2975
  %2977 = bitcast float* %2976 to i8*
  call void @_Z12intrinsic_14PvS_htttt(i8* %2972, i8* %2977, i8 zeroext 0, i16 zeroext 1, i16 zeroext 1, i16 zeroext 0, i16 zeroext 0)
  %2978 = add nuw nsw i64 %2967, 1
  %2979 = icmp slt i64 %2978, %2959
  br i1 %2979, label %2966, label %2961

2980:                                             ; preds = %2983, %2961
  br i1 %755, label %2981, label %3004

2981:                                             ; preds = %2980
  %2982 = add nuw i64 %982, %957
  br label %2996

2983:                                             ; preds = %2962, %2983
  %2984 = phi i64 [ 0, %2962 ], [ %2994, %2983 ]
  %2985 = add i64 %2965, %2984
  %2986 = trunc i64 %2985 to i32
  %2987 = add i32 %2986, -16
  %2988 = getelementptr inbounds float, float* %195, i32 %2987
  %2989 = bitcast float* %2988 to i32*
  %2990 = load i32, i32* %2989, align 4, !tbaa !9
  %2991 = trunc i64 %2984 to i32
  %2992 = getelementptr inbounds float, float* %217, i32 %2991
  %2993 = bitcast float* %2992 to i32*
  store i32 %2990, i32* %2993, align 4, !tbaa !9
  %2994 = add nuw nsw i64 %2984, 1
  %2995 = icmp slt i64 %2994, %151
  br i1 %2995, label %2983, label %2980

2996:                                             ; preds = %2981, %3011
  %2997 = phi i64 [ 0, %2981 ], [ %3012, %3011 ]
  br i1 %756, label %2998, label %3011

2998:                                             ; preds = %2996
  %2999 = add i64 %2982, %2997
  %3000 = shl i64 %2999, 3
  %3001 = sub i64 %3000, %154
  %3002 = mul nsw i64 %2997, %69
  %3003 = add i64 %758, %3002
  br label %3014

3004:                                             ; preds = %3011, %2980
  call void @_Z12intrinsic_266pipe_tS_9EventType(i32 0, i32 5, i32 0)
  call void @_Z12intrinsic_276pipe_tS_9EventType(i32 0, i32 5, i32 0)
  %3005 = add nsw i64 %982, %950
  %3006 = trunc i64 %3005 to i32
  %3007 = mul i32 %60, %3006
  %3008 = add i32 %3007, -8
  %3009 = getelementptr inbounds float, float* %1, i32 %3008
  %3010 = bitcast float* %3009 to i8*
  call void @_Z12intrinsic_14PvS_htttt(i8* %3010, i8* %904, i8 zeroext 0, i16 zeroext 1, i16 zeroext 1, i16 zeroext 0, i16 zeroext 0)
  br label %4714

3011:                                             ; preds = %3014, %2996
  %3012 = add nuw nsw i64 %2997, 1
  %3013 = icmp slt i64 %3012, %149
  br i1 %3013, label %2996, label %3004

3014:                                             ; preds = %2998, %3014
  %3015 = phi i64 [ 0, %2998 ], [ %3025, %3014 ]
  %3016 = add i64 %3001, %3015
  %3017 = trunc i64 %3016 to i32
  %3018 = getelementptr inbounds float, float* %195, i32 %3017
  %3019 = bitcast float* %3018 to i32*
  %3020 = load i32, i32* %3019, align 4, !tbaa !9
  %3021 = add i64 %3003, %3015
  %3022 = trunc i64 %3021 to i32
  %3023 = getelementptr inbounds float, float* %217, i32 %3022
  %3024 = bitcast float* %3023 to i32*
  store i32 %3020, i32* %3024, align 4, !tbaa !9
  %3025 = add nuw nsw i64 %3015, 1
  %3026 = icmp slt i64 %3025, %69
  br i1 %3026, label %3014, label %3011

3027:                                             ; preds = %2954
  %3028 = icmp slt i64 %982, 4096
  %3029 = and i1 %236, %3028
  br i1 %3029, label %3030, label %3039

3030:                                             ; preds = %3027
  %3031 = trunc i64 %950 to i32
  %3032 = mul i32 %60, %3031
  %3033 = getelementptr inbounds float, float* %1, i32 %3032
  %3034 = bitcast float* %3033 to i8*
  %3035 = trunc i64 %958 to i32
  %3036 = getelementptr inbounds float, float* %195, i32 %3035
  %3037 = bitcast float* %3036 to i8*
  %3038 = trunc i64 %982 to i16
  call void @_Z12intrinsic_14PvS_htttt(i8* %3034, i8* %3037, i8 zeroext 0, i16 zeroext %3038, i16 zeroext %237, i16 zeroext 0, i16 zeroext %238)
  br label %4714

3039:                                             ; preds = %3027
  br i1 %593, label %3040, label %3819

3040:                                             ; preds = %3039
  br i1 %595, label %3805, label %3041

3041:                                             ; preds = %3040
  %3042 = icmp sgt i64 %982, 15
  %3043 = and i1 %597, %3042
  br i1 %3043, label %3044, label %3063

3044:                                             ; preds = %3041
  %3045 = icmp slt i64 %950, %88
  %3046 = select i1 %3045, i64 %950, i64 %88
  %3047 = trunc i64 %983 to i16
  br label %3048

3048:                                             ; preds = %3044, %3048
  %3049 = phi i64 [ 0, %3044 ], [ %3061, %3048 ]
  %3050 = add nsw i64 %3049, %950
  %3051 = trunc i64 %3050 to i32
  %3052 = mul i32 %60, %3051
  %3053 = getelementptr float, float* %1, i32 %3052
  %3054 = bitcast float* %3053 to i8*
  %3055 = sub nsw i64 %3050, %3046
  %3056 = mul nsw i64 %3055, %86
  %3057 = trunc i64 %3056 to i32
  %3058 = shl i32 %3057, 1
  %3059 = getelementptr inbounds i16, i16* %598, i32 %3058
  %3060 = bitcast i16* %3059 to i8*
  call void @_Z12intrinsic_14PvS_htttt(i8* %3054, i8* %3060, i8 zeroext 0, i16 zeroext %3047, i16 zeroext %599, i16 zeroext %600, i16 zeroext %601)
  %3061 = add nuw nsw i64 %3049, 1
  %3062 = icmp ult i64 %3049, 15
  br i1 %3062, label %3048, label %3063

3063:                                             ; preds = %3048, %3041
  %3064 = and i64 %982, 15
  %3065 = icmp eq i64 %3064, 0
  br i1 %3065, label %3089, label %3066

3066:                                             ; preds = %3063
  %3067 = shl nuw i64 %983, 5
  %3068 = mul nsw i64 %983, %71
  %3069 = shl nsw i64 %3068, 8
  %3070 = icmp slt i64 %950, %88
  %3071 = select i1 %3070, i64 %950, i64 %88
  br label %3072

3072:                                             ; preds = %3066, %3072
  %3073 = phi i64 [ 0, %3066 ], [ %3087, %3072 ]
  %3074 = add nsw i64 %3073, %950
  %3075 = shl i64 %3074, 1
  %3076 = add i64 %3075, %3067
  %3077 = trunc i64 %3076 to i32
  %3078 = mul i32 %60, %3077
  %3079 = getelementptr inbounds i16, i16* %602, i32 %3078
  %3080 = bitcast i16* %3079 to i8*
  %3081 = sub nsw i64 %3074, %3071
  %3082 = mul i64 %603, %3081
  %3083 = add nsw i64 %3082, %3069
  %3084 = trunc i64 %3083 to i32
  %3085 = getelementptr inbounds i16, i16* %598, i32 %3084
  %3086 = bitcast i16* %3085 to i8*
  call void @_Z12intrinsic_14PvS_htttt(i8* %3080, i8* %3086, i8 zeroext 0, i16 zeroext 1, i16 zeroext %599, i16 zeroext 0, i16 zeroext 0)
  %3087 = add nuw nsw i64 %3073, 1
  %3088 = icmp ult i64 %3087, %3064
  br i1 %3088, label %3072, label %3089

3089:                                             ; preds = %3072, %3063
  %3090 = icmp eq i64 %983, 0
  br i1 %3090, label %3769, label %3091

3091:                                             ; preds = %3089
  call void @_Z11intrinsic_76pipe_t(i32 1)
  %3092 = shl nsw i64 %958, 1
  %3093 = add i64 %604, %3092
  %3094 = add i64 %3093, %990
  %3095 = shl i64 %983, 8
  %3096 = icmp ult i64 %982, 4080
  %3097 = shl nuw nsw i64 %984, 1
  %3098 = mul nsw i64 %984, 3
  %3099 = shl nsw i64 %984, 2
  %3100 = mul nsw i64 %984, 5
  %3101 = mul nsw i64 %984, 6
  %3102 = mul nsw i64 %984, 7
  %3103 = shl nsw i64 %984, 3
  %3104 = mul nsw i64 %984, 9
  %3105 = mul nsw i64 %984, 10
  %3106 = mul nsw i64 %984, 11
  %3107 = mul nsw i64 %984, 12
  %3108 = mul nsw i64 %984, 13
  %3109 = mul nsw i64 %984, 14
  %3110 = mul nsw i64 %984, 15
  %3111 = urem i64 %982, 4080
  %3112 = icmp ugt i64 %3111, 15
  %3113 = lshr i64 %3111, 4
  %3114 = icmp eq i64 %3113, 1
  %3115 = xor i1 %3114, true
  %3116 = zext i1 %3115 to i64
  %3117 = select i1 %3114, i64 0, i64 %72
  br label %3119

3118:                                             ; preds = %3454
  call void @_Z11intrinsic_76pipe_t(i32 1)
  br i1 %3096, label %3455, label %3456

3119:                                             ; preds = %3091, %3454
  %3120 = phi i1 [ true, %3091 ], [ false, %3454 ]
  %3121 = phi i64 [ 0, %3091 ], [ 1, %3454 ]
  %3122 = shl nuw nsw i64 %3121, 4
  %3123 = add i64 %3094, %3122
  %3124 = mul nuw nsw i64 %3095, %3121
  %3125 = add nuw nsw i64 %3124, %987
  br i1 %3096, label %3128, label %3126

3126:                                             ; preds = %3119
  %3127 = add i64 %3093, %3122
  br label %3129

3128:                                             ; preds = %3129, %3119
  br i1 %3112, label %3295, label %3454

3129:                                             ; preds = %3126, %3129
  %3130 = phi i64 [ 0, %3126 ], [ %3293, %3129 ]
  %3131 = mul nuw nsw i64 %3130, 65280
  %3132 = add i64 %3127, %3131
  %3133 = mul nuw nsw i64 %3130, 4080
  %3134 = add nuw nsw i64 %3133, %3124
  call void @llvm.lifetime.start.p0i8(i64 64, i8* nonnull %760) #4
  %3135 = trunc i64 %3134 to i32
  %3136 = getelementptr inbounds i16, i16* %220, i32 %3135
  %3137 = ptrtoint i16* %3136 to i32
  %3138 = zext i32 %3137 to i64
  store i64 %3138, i64* %761, align 8, !tbaa !7
  %3139 = add nuw nsw i64 %3134, %984
  %3140 = trunc i64 %3139 to i32
  %3141 = getelementptr inbounds i16, i16* %220, i32 %3140
  %3142 = ptrtoint i16* %3141 to i32
  %3143 = zext i32 %3142 to i64
  store i64 %3143, i64* %762, align 8, !tbaa !7
  %3144 = add nuw nsw i64 %3134, %3097
  %3145 = trunc i64 %3144 to i32
  %3146 = getelementptr inbounds i16, i16* %220, i32 %3145
  %3147 = ptrtoint i16* %3146 to i32
  %3148 = zext i32 %3147 to i64
  store i64 %3148, i64* %763, align 8, !tbaa !7
  %3149 = add nuw nsw i64 %3134, %3098
  %3150 = trunc i64 %3149 to i32
  %3151 = getelementptr inbounds i16, i16* %220, i32 %3150
  %3152 = ptrtoint i16* %3151 to i32
  %3153 = zext i32 %3152 to i64
  store i64 %3153, i64* %764, align 8, !tbaa !7
  %3154 = add nuw nsw i64 %3134, %3099
  %3155 = trunc i64 %3154 to i32
  %3156 = getelementptr inbounds i16, i16* %220, i32 %3155
  %3157 = ptrtoint i16* %3156 to i32
  %3158 = zext i32 %3157 to i64
  store i64 %3158, i64* %765, align 8, !tbaa !7
  %3159 = add nuw nsw i64 %3134, %3100
  %3160 = trunc i64 %3159 to i32
  %3161 = getelementptr inbounds i16, i16* %220, i32 %3160
  %3162 = ptrtoint i16* %3161 to i32
  %3163 = zext i32 %3162 to i64
  store i64 %3163, i64* %766, align 8, !tbaa !7
  %3164 = add nuw nsw i64 %3134, %3101
  %3165 = trunc i64 %3164 to i32
  %3166 = getelementptr inbounds i16, i16* %220, i32 %3165
  %3167 = ptrtoint i16* %3166 to i32
  %3168 = zext i32 %3167 to i64
  store i64 %3168, i64* %767, align 8, !tbaa !7
  %3169 = add nuw nsw i64 %3134, %3102
  %3170 = trunc i64 %3169 to i32
  %3171 = getelementptr inbounds i16, i16* %220, i32 %3170
  %3172 = ptrtoint i16* %3171 to i32
  %3173 = zext i32 %3172 to i64
  store i64 %3173, i64* %768, align 8, !tbaa !7
  call void @_Z12intrinsic_2510ub_addr8_tPy(i32 0, i64* nonnull %761)
  call void @llvm.lifetime.start.p0i8(i64 64, i8* nonnull %769) #4
  %3174 = add nuw nsw i64 %3134, %3103
  %3175 = trunc i64 %3174 to i32
  %3176 = getelementptr inbounds i16, i16* %220, i32 %3175
  %3177 = ptrtoint i16* %3176 to i32
  %3178 = zext i32 %3177 to i64
  store i64 %3178, i64* %770, align 8, !tbaa !7
  %3179 = add nuw nsw i64 %3134, %3104
  %3180 = trunc i64 %3179 to i32
  %3181 = getelementptr inbounds i16, i16* %220, i32 %3180
  %3182 = ptrtoint i16* %3181 to i32
  %3183 = zext i32 %3182 to i64
  store i64 %3183, i64* %771, align 8, !tbaa !7
  %3184 = add nuw nsw i64 %3134, %3105
  %3185 = trunc i64 %3184 to i32
  %3186 = getelementptr inbounds i16, i16* %220, i32 %3185
  %3187 = ptrtoint i16* %3186 to i32
  %3188 = zext i32 %3187 to i64
  store i64 %3188, i64* %772, align 8, !tbaa !7
  %3189 = add nuw nsw i64 %3134, %3106
  %3190 = trunc i64 %3189 to i32
  %3191 = getelementptr inbounds i16, i16* %220, i32 %3190
  %3192 = ptrtoint i16* %3191 to i32
  %3193 = zext i32 %3192 to i64
  store i64 %3193, i64* %773, align 8, !tbaa !7
  %3194 = add nuw nsw i64 %3134, %3107
  %3195 = trunc i64 %3194 to i32
  %3196 = getelementptr inbounds i16, i16* %220, i32 %3195
  %3197 = ptrtoint i16* %3196 to i32
  %3198 = zext i32 %3197 to i64
  store i64 %3198, i64* %774, align 8, !tbaa !7
  %3199 = add nuw nsw i64 %3134, %3108
  %3200 = trunc i64 %3199 to i32
  %3201 = getelementptr inbounds i16, i16* %220, i32 %3200
  %3202 = ptrtoint i16* %3201 to i32
  %3203 = zext i32 %3202 to i64
  store i64 %3203, i64* %775, align 8, !tbaa !7
  %3204 = add nuw nsw i64 %3134, %3109
  %3205 = trunc i64 %3204 to i32
  %3206 = getelementptr inbounds i16, i16* %220, i32 %3205
  %3207 = ptrtoint i16* %3206 to i32
  %3208 = zext i32 %3207 to i64
  store i64 %3208, i64* %776, align 8, !tbaa !7
  %3209 = add nuw nsw i64 %3134, %3110
  %3210 = trunc i64 %3209 to i32
  %3211 = getelementptr inbounds i16, i16* %220, i32 %3210
  %3212 = ptrtoint i16* %3211 to i32
  %3213 = zext i32 %3212 to i64
  store i64 %3213, i64* %777, align 8, !tbaa !7
  call void @_Z12intrinsic_2510ub_addr8_tPy(i32 1, i64* nonnull %770)
  call void @llvm.lifetime.start.p0i8(i64 64, i8* nonnull %778) #4
  %3214 = trunc i64 %3132 to i32
  %3215 = getelementptr inbounds i16, i16* %598, i32 %3214
  %3216 = ptrtoint i16* %3215 to i32
  %3217 = zext i32 %3216 to i64
  store i64 %3217, i64* %779, align 8, !tbaa !7
  %3218 = add nsw i64 %3132, %72
  %3219 = trunc i64 %3218 to i32
  %3220 = getelementptr inbounds i16, i16* %598, i32 %3219
  %3221 = ptrtoint i16* %3220 to i32
  %3222 = zext i32 %3221 to i64
  store i64 %3222, i64* %780, align 8, !tbaa !7
  %3223 = add nsw i64 %3132, %160
  %3224 = trunc i64 %3223 to i32
  %3225 = getelementptr inbounds i16, i16* %598, i32 %3224
  %3226 = ptrtoint i16* %3225 to i32
  %3227 = zext i32 %3226 to i64
  store i64 %3227, i64* %781, align 8, !tbaa !7
  %3228 = add nsw i64 %3132, %161
  %3229 = trunc i64 %3228 to i32
  %3230 = getelementptr inbounds i16, i16* %598, i32 %3229
  %3231 = ptrtoint i16* %3230 to i32
  %3232 = zext i32 %3231 to i64
  store i64 %3232, i64* %782, align 8, !tbaa !7
  %3233 = add nsw i64 %3132, %162
  %3234 = trunc i64 %3233 to i32
  %3235 = getelementptr inbounds i16, i16* %598, i32 %3234
  %3236 = ptrtoint i16* %3235 to i32
  %3237 = zext i32 %3236 to i64
  store i64 %3237, i64* %783, align 8, !tbaa !7
  %3238 = add nsw i64 %3132, %163
  %3239 = trunc i64 %3238 to i32
  %3240 = getelementptr inbounds i16, i16* %598, i32 %3239
  %3241 = ptrtoint i16* %3240 to i32
  %3242 = zext i32 %3241 to i64
  store i64 %3242, i64* %784, align 8, !tbaa !7
  %3243 = add nsw i64 %3132, %164
  %3244 = trunc i64 %3243 to i32
  %3245 = getelementptr inbounds i16, i16* %598, i32 %3244
  %3246 = ptrtoint i16* %3245 to i32
  %3247 = zext i32 %3246 to i64
  store i64 %3247, i64* %785, align 8, !tbaa !7
  %3248 = add nsw i64 %3132, %165
  %3249 = trunc i64 %3248 to i32
  %3250 = getelementptr inbounds i16, i16* %598, i32 %3249
  %3251 = ptrtoint i16* %3250 to i32
  %3252 = zext i32 %3251 to i64
  store i64 %3252, i64* %786, align 8, !tbaa !7
  call void @_Z12intrinsic_2510ub_addr8_tPy(i32 2, i64* nonnull %779)
  call void @llvm.lifetime.start.p0i8(i64 64, i8* nonnull %787) #4
  %3253 = add nsw i64 %3132, %166
  %3254 = trunc i64 %3253 to i32
  %3255 = getelementptr inbounds i16, i16* %598, i32 %3254
  %3256 = ptrtoint i16* %3255 to i32
  %3257 = zext i32 %3256 to i64
  store i64 %3257, i64* %788, align 8, !tbaa !7
  %3258 = add nsw i64 %3132, %167
  %3259 = trunc i64 %3258 to i32
  %3260 = getelementptr inbounds i16, i16* %598, i32 %3259
  %3261 = ptrtoint i16* %3260 to i32
  %3262 = zext i32 %3261 to i64
  store i64 %3262, i64* %789, align 8, !tbaa !7
  %3263 = add nsw i64 %3132, %168
  %3264 = trunc i64 %3263 to i32
  %3265 = getelementptr inbounds i16, i16* %598, i32 %3264
  %3266 = ptrtoint i16* %3265 to i32
  %3267 = zext i32 %3266 to i64
  store i64 %3267, i64* %790, align 8, !tbaa !7
  %3268 = add nsw i64 %3132, %169
  %3269 = trunc i64 %3268 to i32
  %3270 = getelementptr inbounds i16, i16* %598, i32 %3269
  %3271 = ptrtoint i16* %3270 to i32
  %3272 = zext i32 %3271 to i64
  store i64 %3272, i64* %791, align 8, !tbaa !7
  %3273 = add nsw i64 %3132, %170
  %3274 = trunc i64 %3273 to i32
  %3275 = getelementptr inbounds i16, i16* %598, i32 %3274
  %3276 = ptrtoint i16* %3275 to i32
  %3277 = zext i32 %3276 to i64
  store i64 %3277, i64* %792, align 8, !tbaa !7
  %3278 = add nsw i64 %3132, %171
  %3279 = trunc i64 %3278 to i32
  %3280 = getelementptr inbounds i16, i16* %598, i32 %3279
  %3281 = ptrtoint i16* %3280 to i32
  %3282 = zext i32 %3281 to i64
  store i64 %3282, i64* %793, align 8, !tbaa !7
  %3283 = add nsw i64 %3132, %172
  %3284 = trunc i64 %3283 to i32
  %3285 = getelementptr inbounds i16, i16* %598, i32 %3284
  %3286 = ptrtoint i16* %3285 to i32
  %3287 = zext i32 %3286 to i64
  store i64 %3287, i64* %794, align 8, !tbaa !7
  %3288 = add nsw i64 %3132, %173
  %3289 = trunc i64 %3288 to i32
  %3290 = getelementptr inbounds i16, i16* %598, i32 %3289
  %3291 = ptrtoint i16* %3290 to i32
  %3292 = zext i32 %3291 to i64
  store i64 %3292, i64* %795, align 8, !tbaa !7
  call void @_Z12intrinsic_2510ub_addr8_tPy(i32 3, i64* nonnull %788)
  call void @_Z12intrinsic_1910ub_addr8_tS_xxx(i32 0, i32 2, i64 255, i64 1, i64 %72)
  call void @llvm.lifetime.end.p0i8(i64 64, i8* nonnull %787) #4
  call void @llvm.lifetime.end.p0i8(i64 64, i8* nonnull %778) #4
  call void @llvm.lifetime.end.p0i8(i64 64, i8* nonnull %769) #4
  call void @llvm.lifetime.end.p0i8(i64 64, i8* nonnull %760) #4
  %3293 = add nuw nsw i64 %3130, 1
  %3294 = icmp ult i64 %3293, %986
  br i1 %3294, label %3129, label %3128

3295:                                             ; preds = %3128
  call void @llvm.lifetime.start.p0i8(i64 64, i8* nonnull %796) #4
  %3296 = trunc i64 %3125 to i32
  %3297 = getelementptr inbounds i16, i16* %220, i32 %3296
  %3298 = ptrtoint i16* %3297 to i32
  %3299 = zext i32 %3298 to i64
  store i64 %3299, i64* %797, align 8, !tbaa !7
  %3300 = add nuw nsw i64 %3125, %984
  %3301 = trunc i64 %3300 to i32
  %3302 = getelementptr inbounds i16, i16* %220, i32 %3301
  %3303 = ptrtoint i16* %3302 to i32
  %3304 = zext i32 %3303 to i64
  store i64 %3304, i64* %798, align 8, !tbaa !7
  %3305 = add nuw nsw i64 %3125, %3097
  %3306 = trunc i64 %3305 to i32
  %3307 = getelementptr inbounds i16, i16* %220, i32 %3306
  %3308 = ptrtoint i16* %3307 to i32
  %3309 = zext i32 %3308 to i64
  store i64 %3309, i64* %799, align 8, !tbaa !7
  %3310 = add nuw nsw i64 %3125, %3098
  %3311 = trunc i64 %3310 to i32
  %3312 = getelementptr inbounds i16, i16* %220, i32 %3311
  %3313 = ptrtoint i16* %3312 to i32
  %3314 = zext i32 %3313 to i64
  store i64 %3314, i64* %800, align 8, !tbaa !7
  %3315 = add nuw nsw i64 %3125, %3099
  %3316 = trunc i64 %3315 to i32
  %3317 = getelementptr inbounds i16, i16* %220, i32 %3316
  %3318 = ptrtoint i16* %3317 to i32
  %3319 = zext i32 %3318 to i64
  store i64 %3319, i64* %801, align 8, !tbaa !7
  %3320 = add nuw nsw i64 %3125, %3100
  %3321 = trunc i64 %3320 to i32
  %3322 = getelementptr inbounds i16, i16* %220, i32 %3321
  %3323 = ptrtoint i16* %3322 to i32
  %3324 = zext i32 %3323 to i64
  store i64 %3324, i64* %802, align 8, !tbaa !7
  %3325 = add nuw nsw i64 %3125, %3101
  %3326 = trunc i64 %3325 to i32
  %3327 = getelementptr inbounds i16, i16* %220, i32 %3326
  %3328 = ptrtoint i16* %3327 to i32
  %3329 = zext i32 %3328 to i64
  store i64 %3329, i64* %803, align 8, !tbaa !7
  %3330 = add nuw nsw i64 %3125, %3102
  %3331 = trunc i64 %3330 to i32
  %3332 = getelementptr inbounds i16, i16* %220, i32 %3331
  %3333 = ptrtoint i16* %3332 to i32
  %3334 = zext i32 %3333 to i64
  store i64 %3334, i64* %804, align 8, !tbaa !7
  call void @_Z12intrinsic_2510ub_addr8_tPy(i32 0, i64* nonnull %797)
  call void @llvm.lifetime.start.p0i8(i64 64, i8* nonnull %805) #4
  %3335 = add nuw nsw i64 %3125, %3103
  %3336 = trunc i64 %3335 to i32
  %3337 = getelementptr inbounds i16, i16* %220, i32 %3336
  %3338 = ptrtoint i16* %3337 to i32
  %3339 = zext i32 %3338 to i64
  store i64 %3339, i64* %806, align 8, !tbaa !7
  %3340 = add nuw nsw i64 %3125, %3104
  %3341 = trunc i64 %3340 to i32
  %3342 = getelementptr inbounds i16, i16* %220, i32 %3341
  %3343 = ptrtoint i16* %3342 to i32
  %3344 = zext i32 %3343 to i64
  store i64 %3344, i64* %807, align 8, !tbaa !7
  %3345 = add nuw nsw i64 %3125, %3105
  %3346 = trunc i64 %3345 to i32
  %3347 = getelementptr inbounds i16, i16* %220, i32 %3346
  %3348 = ptrtoint i16* %3347 to i32
  %3349 = zext i32 %3348 to i64
  store i64 %3349, i64* %808, align 8, !tbaa !7
  %3350 = add nuw nsw i64 %3125, %3106
  %3351 = trunc i64 %3350 to i32
  %3352 = getelementptr inbounds i16, i16* %220, i32 %3351
  %3353 = ptrtoint i16* %3352 to i32
  %3354 = zext i32 %3353 to i64
  store i64 %3354, i64* %809, align 8, !tbaa !7
  %3355 = add nuw nsw i64 %3125, %3107
  %3356 = trunc i64 %3355 to i32
  %3357 = getelementptr inbounds i16, i16* %220, i32 %3356
  %3358 = ptrtoint i16* %3357 to i32
  %3359 = zext i32 %3358 to i64
  store i64 %3359, i64* %810, align 8, !tbaa !7
  %3360 = add nuw nsw i64 %3125, %3108
  %3361 = trunc i64 %3360 to i32
  %3362 = getelementptr inbounds i16, i16* %220, i32 %3361
  %3363 = ptrtoint i16* %3362 to i32
  %3364 = zext i32 %3363 to i64
  store i64 %3364, i64* %811, align 8, !tbaa !7
  %3365 = add nuw nsw i64 %3125, %3109
  %3366 = trunc i64 %3365 to i32
  %3367 = getelementptr inbounds i16, i16* %220, i32 %3366
  %3368 = ptrtoint i16* %3367 to i32
  %3369 = zext i32 %3368 to i64
  store i64 %3369, i64* %812, align 8, !tbaa !7
  %3370 = add nuw nsw i64 %3125, %3110
  %3371 = trunc i64 %3370 to i32
  %3372 = getelementptr inbounds i16, i16* %220, i32 %3371
  %3373 = ptrtoint i16* %3372 to i32
  %3374 = zext i32 %3373 to i64
  store i64 %3374, i64* %813, align 8, !tbaa !7
  call void @_Z12intrinsic_2510ub_addr8_tPy(i32 1, i64* nonnull %806)
  call void @llvm.lifetime.start.p0i8(i64 64, i8* nonnull %814) #4
  %3375 = trunc i64 %3123 to i32
  %3376 = getelementptr inbounds i16, i16* %598, i32 %3375
  %3377 = ptrtoint i16* %3376 to i32
  %3378 = zext i32 %3377 to i64
  store i64 %3378, i64* %815, align 8, !tbaa !7
  %3379 = add nsw i64 %3123, %72
  %3380 = trunc i64 %3379 to i32
  %3381 = getelementptr inbounds i16, i16* %598, i32 %3380
  %3382 = ptrtoint i16* %3381 to i32
  %3383 = zext i32 %3382 to i64
  store i64 %3383, i64* %816, align 8, !tbaa !7
  %3384 = add nsw i64 %3123, %160
  %3385 = trunc i64 %3384 to i32
  %3386 = getelementptr inbounds i16, i16* %598, i32 %3385
  %3387 = ptrtoint i16* %3386 to i32
  %3388 = zext i32 %3387 to i64
  store i64 %3388, i64* %817, align 8, !tbaa !7
  %3389 = add nsw i64 %3123, %161
  %3390 = trunc i64 %3389 to i32
  %3391 = getelementptr inbounds i16, i16* %598, i32 %3390
  %3392 = ptrtoint i16* %3391 to i32
  %3393 = zext i32 %3392 to i64
  store i64 %3393, i64* %818, align 8, !tbaa !7
  %3394 = add nsw i64 %3123, %162
  %3395 = trunc i64 %3394 to i32
  %3396 = getelementptr inbounds i16, i16* %598, i32 %3395
  %3397 = ptrtoint i16* %3396 to i32
  %3398 = zext i32 %3397 to i64
  store i64 %3398, i64* %819, align 8, !tbaa !7
  %3399 = add nsw i64 %3123, %163
  %3400 = trunc i64 %3399 to i32
  %3401 = getelementptr inbounds i16, i16* %598, i32 %3400
  %3402 = ptrtoint i16* %3401 to i32
  %3403 = zext i32 %3402 to i64
  store i64 %3403, i64* %820, align 8, !tbaa !7
  %3404 = add nsw i64 %3123, %164
  %3405 = trunc i64 %3404 to i32
  %3406 = getelementptr inbounds i16, i16* %598, i32 %3405
  %3407 = ptrtoint i16* %3406 to i32
  %3408 = zext i32 %3407 to i64
  store i64 %3408, i64* %821, align 8, !tbaa !7
  %3409 = add nsw i64 %3123, %165
  %3410 = trunc i64 %3409 to i32
  %3411 = getelementptr inbounds i16, i16* %598, i32 %3410
  %3412 = ptrtoint i16* %3411 to i32
  %3413 = zext i32 %3412 to i64
  store i64 %3413, i64* %822, align 8, !tbaa !7
  call void @_Z12intrinsic_2510ub_addr8_tPy(i32 2, i64* nonnull %815)
  call void @llvm.lifetime.start.p0i8(i64 64, i8* nonnull %823) #4
  %3414 = add nsw i64 %3123, %166
  %3415 = trunc i64 %3414 to i32
  %3416 = getelementptr inbounds i16, i16* %598, i32 %3415
  %3417 = ptrtoint i16* %3416 to i32
  %3418 = zext i32 %3417 to i64
  store i64 %3418, i64* %824, align 8, !tbaa !7
  %3419 = add nsw i64 %3123, %167
  %3420 = trunc i64 %3419 to i32
  %3421 = getelementptr inbounds i16, i16* %598, i32 %3420
  %3422 = ptrtoint i16* %3421 to i32
  %3423 = zext i32 %3422 to i64
  store i64 %3423, i64* %825, align 8, !tbaa !7
  %3424 = add nsw i64 %3123, %168
  %3425 = trunc i64 %3424 to i32
  %3426 = getelementptr inbounds i16, i16* %598, i32 %3425
  %3427 = ptrtoint i16* %3426 to i32
  %3428 = zext i32 %3427 to i64
  store i64 %3428, i64* %826, align 8, !tbaa !7
  %3429 = add nsw i64 %3123, %169
  %3430 = trunc i64 %3429 to i32
  %3431 = getelementptr inbounds i16, i16* %598, i32 %3430
  %3432 = ptrtoint i16* %3431 to i32
  %3433 = zext i32 %3432 to i64
  store i64 %3433, i64* %827, align 8, !tbaa !7
  %3434 = add nsw i64 %3123, %170
  %3435 = trunc i64 %3434 to i32
  %3436 = getelementptr inbounds i16, i16* %598, i32 %3435
  %3437 = ptrtoint i16* %3436 to i32
  %3438 = zext i32 %3437 to i64
  store i64 %3438, i64* %828, align 8, !tbaa !7
  %3439 = add nsw i64 %3123, %171
  %3440 = trunc i64 %3439 to i32
  %3441 = getelementptr inbounds i16, i16* %598, i32 %3440
  %3442 = ptrtoint i16* %3441 to i32
  %3443 = zext i32 %3442 to i64
  store i64 %3443, i64* %829, align 8, !tbaa !7
  %3444 = add nsw i64 %3123, %172
  %3445 = trunc i64 %3444 to i32
  %3446 = getelementptr inbounds i16, i16* %598, i32 %3445
  %3447 = ptrtoint i16* %3446 to i32
  %3448 = zext i32 %3447 to i64
  store i64 %3448, i64* %830, align 8, !tbaa !7
  %3449 = add nsw i64 %3123, %173
  %3450 = trunc i64 %3449 to i32
  %3451 = getelementptr inbounds i16, i16* %598, i32 %3450
  %3452 = ptrtoint i16* %3451 to i32
  %3453 = zext i32 %3452 to i64
  store i64 %3453, i64* %831, align 8, !tbaa !7
  call void @_Z12intrinsic_2510ub_addr8_tPy(i32 3, i64* nonnull %824)
  call void @_Z12intrinsic_1910ub_addr8_tS_xxx(i32 0, i32 2, i64 %3113, i64 %3116, i64 %3117)
  call void @llvm.lifetime.end.p0i8(i64 64, i8* nonnull %823) #4
  call void @llvm.lifetime.end.p0i8(i64 64, i8* nonnull %814) #4
  call void @llvm.lifetime.end.p0i8(i64 64, i8* nonnull %805) #4
  call void @llvm.lifetime.end.p0i8(i64 64, i8* nonnull %796) #4
  br label %3454

3454:                                             ; preds = %3295, %3128
  br i1 %3120, label %3119, label %3118

3455:                                             ; preds = %3456, %3118
  br i1 %3112, label %3606, label %3751

3456:                                             ; preds = %3118, %3456
  %3457 = phi i64 [ %3604, %3456 ], [ 0, %3118 ]
  %3458 = mul nuw nsw i64 %3457, 4080
  %3459 = add nuw nsw i64 %3458, %988
  call void @llvm.lifetime.start.p0i8(i64 64, i8* nonnull %832) #4
  %3460 = trunc i64 %3457 to i32
  %3461 = mul i32 %3460, 65280
  %3462 = getelementptr inbounds i16, i16* %223, i32 %3461
  %3463 = ptrtoint i16* %3462 to i32
  %3464 = zext i32 %3463 to i64
  store i64 %3464, i64* %833, align 8, !tbaa !7
  %3465 = or i32 %3461, 16
  %3466 = getelementptr inbounds i16, i16* %223, i32 %3465
  %3467 = ptrtoint i16* %3466 to i32
  %3468 = zext i32 %3467 to i64
  store i64 %3468, i64* %834, align 8, !tbaa !7
  %3469 = or i32 %3461, 32
  %3470 = getelementptr inbounds i16, i16* %223, i32 %3469
  %3471 = ptrtoint i16* %3470 to i32
  %3472 = zext i32 %3471 to i64
  store i64 %3472, i64* %835, align 8, !tbaa !7
  %3473 = or i32 %3461, 48
  %3474 = getelementptr inbounds i16, i16* %223, i32 %3473
  %3475 = ptrtoint i16* %3474 to i32
  %3476 = zext i32 %3475 to i64
  store i64 %3476, i64* %836, align 8, !tbaa !7
  %3477 = or i32 %3461, 64
  %3478 = getelementptr inbounds i16, i16* %223, i32 %3477
  %3479 = ptrtoint i16* %3478 to i32
  %3480 = zext i32 %3479 to i64
  store i64 %3480, i64* %837, align 8, !tbaa !7
  %3481 = or i32 %3461, 80
  %3482 = getelementptr inbounds i16, i16* %223, i32 %3481
  %3483 = ptrtoint i16* %3482 to i32
  %3484 = zext i32 %3483 to i64
  store i64 %3484, i64* %838, align 8, !tbaa !7
  %3485 = or i32 %3461, 96
  %3486 = getelementptr inbounds i16, i16* %223, i32 %3485
  %3487 = ptrtoint i16* %3486 to i32
  %3488 = zext i32 %3487 to i64
  store i64 %3488, i64* %839, align 8, !tbaa !7
  %3489 = or i32 %3461, 112
  %3490 = getelementptr inbounds i16, i16* %223, i32 %3489
  %3491 = ptrtoint i16* %3490 to i32
  %3492 = zext i32 %3491 to i64
  store i64 %3492, i64* %840, align 8, !tbaa !7
  call void @_Z12intrinsic_2510ub_addr8_tPy(i32 0, i64* nonnull %833)
  call void @llvm.lifetime.start.p0i8(i64 64, i8* nonnull %841) #4
  %3493 = or i32 %3461, 128
  %3494 = getelementptr inbounds i16, i16* %223, i32 %3493
  %3495 = ptrtoint i16* %3494 to i32
  %3496 = zext i32 %3495 to i64
  store i64 %3496, i64* %842, align 8, !tbaa !7
  %3497 = or i32 %3461, 144
  %3498 = getelementptr inbounds i16, i16* %223, i32 %3497
  %3499 = ptrtoint i16* %3498 to i32
  %3500 = zext i32 %3499 to i64
  store i64 %3500, i64* %843, align 8, !tbaa !7
  %3501 = or i32 %3461, 160
  %3502 = getelementptr inbounds i16, i16* %223, i32 %3501
  %3503 = ptrtoint i16* %3502 to i32
  %3504 = zext i32 %3503 to i64
  store i64 %3504, i64* %844, align 8, !tbaa !7
  %3505 = or i32 %3461, 176
  %3506 = getelementptr inbounds i16, i16* %223, i32 %3505
  %3507 = ptrtoint i16* %3506 to i32
  %3508 = zext i32 %3507 to i64
  store i64 %3508, i64* %845, align 8, !tbaa !7
  %3509 = or i32 %3461, 192
  %3510 = getelementptr inbounds i16, i16* %223, i32 %3509
  %3511 = ptrtoint i16* %3510 to i32
  %3512 = zext i32 %3511 to i64
  store i64 %3512, i64* %846, align 8, !tbaa !7
  %3513 = or i32 %3461, 208
  %3514 = getelementptr inbounds i16, i16* %223, i32 %3513
  %3515 = ptrtoint i16* %3514 to i32
  %3516 = zext i32 %3515 to i64
  store i64 %3516, i64* %847, align 8, !tbaa !7
  %3517 = or i32 %3461, 224
  %3518 = getelementptr inbounds i16, i16* %223, i32 %3517
  %3519 = ptrtoint i16* %3518 to i32
  %3520 = zext i32 %3519 to i64
  store i64 %3520, i64* %848, align 8, !tbaa !7
  %3521 = or i32 %3461, 240
  %3522 = getelementptr inbounds i16, i16* %223, i32 %3521
  %3523 = ptrtoint i16* %3522 to i32
  %3524 = zext i32 %3523 to i64
  store i64 %3524, i64* %849, align 8, !tbaa !7
  call void @_Z12intrinsic_2510ub_addr8_tPy(i32 1, i64* nonnull %842)
  call void @llvm.lifetime.start.p0i8(i64 64, i8* nonnull %850) #4
  %3525 = trunc i64 %3459 to i32
  %3526 = getelementptr inbounds i16, i16* %220, i32 %3525
  %3527 = ptrtoint i16* %3526 to i32
  %3528 = zext i32 %3527 to i64
  store i64 %3528, i64* %851, align 8, !tbaa !7
  %3529 = add nuw nsw i64 %3459, %984
  %3530 = trunc i64 %3529 to i32
  %3531 = getelementptr inbounds i16, i16* %220, i32 %3530
  %3532 = ptrtoint i16* %3531 to i32
  %3533 = zext i32 %3532 to i64
  store i64 %3533, i64* %852, align 8, !tbaa !7
  %3534 = add nuw nsw i64 %3459, %3097
  %3535 = trunc i64 %3534 to i32
  %3536 = getelementptr inbounds i16, i16* %220, i32 %3535
  %3537 = ptrtoint i16* %3536 to i32
  %3538 = zext i32 %3537 to i64
  store i64 %3538, i64* %853, align 8, !tbaa !7
  %3539 = add nuw nsw i64 %3459, %3098
  %3540 = trunc i64 %3539 to i32
  %3541 = getelementptr inbounds i16, i16* %220, i32 %3540
  %3542 = ptrtoint i16* %3541 to i32
  %3543 = zext i32 %3542 to i64
  store i64 %3543, i64* %854, align 8, !tbaa !7
  %3544 = add nuw nsw i64 %3459, %3099
  %3545 = trunc i64 %3544 to i32
  %3546 = getelementptr inbounds i16, i16* %220, i32 %3545
  %3547 = ptrtoint i16* %3546 to i32
  %3548 = zext i32 %3547 to i64
  store i64 %3548, i64* %855, align 8, !tbaa !7
  %3549 = add nuw nsw i64 %3459, %3100
  %3550 = trunc i64 %3549 to i32
  %3551 = getelementptr inbounds i16, i16* %220, i32 %3550
  %3552 = ptrtoint i16* %3551 to i32
  %3553 = zext i32 %3552 to i64
  store i64 %3553, i64* %856, align 8, !tbaa !7
  %3554 = add nuw nsw i64 %3459, %3101
  %3555 = trunc i64 %3554 to i32
  %3556 = getelementptr inbounds i16, i16* %220, i32 %3555
  %3557 = ptrtoint i16* %3556 to i32
  %3558 = zext i32 %3557 to i64
  store i64 %3558, i64* %857, align 8, !tbaa !7
  %3559 = add nuw nsw i64 %3459, %3102
  %3560 = trunc i64 %3559 to i32
  %3561 = getelementptr inbounds i16, i16* %220, i32 %3560
  %3562 = ptrtoint i16* %3561 to i32
  %3563 = zext i32 %3562 to i64
  store i64 %3563, i64* %858, align 8, !tbaa !7
  call void @_Z12intrinsic_2510ub_addr8_tPy(i32 2, i64* nonnull %851)
  call void @llvm.lifetime.start.p0i8(i64 64, i8* nonnull %859) #4
  %3564 = add nuw nsw i64 %3459, %3103
  %3565 = trunc i64 %3564 to i32
  %3566 = getelementptr inbounds i16, i16* %220, i32 %3565
  %3567 = ptrtoint i16* %3566 to i32
  %3568 = zext i32 %3567 to i64
  store i64 %3568, i64* %860, align 8, !tbaa !7
  %3569 = add nuw nsw i64 %3459, %3104
  %3570 = trunc i64 %3569 to i32
  %3571 = getelementptr inbounds i16, i16* %220, i32 %3570
  %3572 = ptrtoint i16* %3571 to i32
  %3573 = zext i32 %3572 to i64
  store i64 %3573, i64* %861, align 8, !tbaa !7
  %3574 = add nuw nsw i64 %3459, %3105
  %3575 = trunc i64 %3574 to i32
  %3576 = getelementptr inbounds i16, i16* %220, i32 %3575
  %3577 = ptrtoint i16* %3576 to i32
  %3578 = zext i32 %3577 to i64
  store i64 %3578, i64* %862, align 8, !tbaa !7
  %3579 = add nuw nsw i64 %3459, %3106
  %3580 = trunc i64 %3579 to i32
  %3581 = getelementptr inbounds i16, i16* %220, i32 %3580
  %3582 = ptrtoint i16* %3581 to i32
  %3583 = zext i32 %3582 to i64
  store i64 %3583, i64* %863, align 8, !tbaa !7
  %3584 = add nuw nsw i64 %3459, %3107
  %3585 = trunc i64 %3584 to i32
  %3586 = getelementptr inbounds i16, i16* %220, i32 %3585
  %3587 = ptrtoint i16* %3586 to i32
  %3588 = zext i32 %3587 to i64
  store i64 %3588, i64* %864, align 8, !tbaa !7
  %3589 = add nuw nsw i64 %3459, %3108
  %3590 = trunc i64 %3589 to i32
  %3591 = getelementptr inbounds i16, i16* %220, i32 %3590
  %3592 = ptrtoint i16* %3591 to i32
  %3593 = zext i32 %3592 to i64
  store i64 %3593, i64* %865, align 8, !tbaa !7
  %3594 = add nuw nsw i64 %3459, %3109
  %3595 = trunc i64 %3594 to i32
  %3596 = getelementptr inbounds i16, i16* %220, i32 %3595
  %3597 = ptrtoint i16* %3596 to i32
  %3598 = zext i32 %3597 to i64
  store i64 %3598, i64* %866, align 8, !tbaa !7
  %3599 = add nuw nsw i64 %3459, %3110
  %3600 = trunc i64 %3599 to i32
  %3601 = getelementptr inbounds i16, i16* %220, i32 %3600
  %3602 = ptrtoint i16* %3601 to i32
  %3603 = zext i32 %3602 to i64
  store i64 %3603, i64* %867, align 8, !tbaa !7
  call void @_Z12intrinsic_2510ub_addr8_tPy(i32 3, i64* nonnull %860)
  call void @_Z12intrinsic_1910ub_addr8_tS_xxx(i32 0, i32 2, i64 255, i64 16, i64 1)
  call void @llvm.lifetime.end.p0i8(i64 64, i8* nonnull %859) #4
  call void @llvm.lifetime.end.p0i8(i64 64, i8* nonnull %850) #4
  call void @llvm.lifetime.end.p0i8(i64 64, i8* nonnull %841) #4
  call void @llvm.lifetime.end.p0i8(i64 64, i8* nonnull %832) #4
  %3604 = add nuw nsw i64 %3457, 1
  %3605 = icmp ult i64 %3604, %986
  br i1 %3605, label %3456, label %3455

3606:                                             ; preds = %3455
  call void @llvm.lifetime.start.p0i8(i64 64, i8* nonnull %868) #4
  %3607 = trunc i64 %990 to i32
  %3608 = getelementptr inbounds i16, i16* %223, i32 %3607
  %3609 = ptrtoint i16* %3608 to i32
  %3610 = zext i32 %3609 to i64
  store i64 %3610, i64* %869, align 8, !tbaa !7
  %3611 = or i32 %3607, 16
  %3612 = getelementptr inbounds i16, i16* %223, i32 %3611
  %3613 = ptrtoint i16* %3612 to i32
  %3614 = zext i32 %3613 to i64
  store i64 %3614, i64* %870, align 8, !tbaa !7
  %3615 = or i32 %3607, 32
  %3616 = getelementptr inbounds i16, i16* %223, i32 %3615
  %3617 = ptrtoint i16* %3616 to i32
  %3618 = zext i32 %3617 to i64
  store i64 %3618, i64* %871, align 8, !tbaa !7
  %3619 = or i32 %3607, 48
  %3620 = getelementptr inbounds i16, i16* %223, i32 %3619
  %3621 = ptrtoint i16* %3620 to i32
  %3622 = zext i32 %3621 to i64
  store i64 %3622, i64* %872, align 8, !tbaa !7
  %3623 = or i32 %3607, 64
  %3624 = getelementptr inbounds i16, i16* %223, i32 %3623
  %3625 = ptrtoint i16* %3624 to i32
  %3626 = zext i32 %3625 to i64
  store i64 %3626, i64* %873, align 8, !tbaa !7
  %3627 = or i32 %3607, 80
  %3628 = getelementptr inbounds i16, i16* %223, i32 %3627
  %3629 = ptrtoint i16* %3628 to i32
  %3630 = zext i32 %3629 to i64
  store i64 %3630, i64* %874, align 8, !tbaa !7
  %3631 = or i32 %3607, 96
  %3632 = getelementptr inbounds i16, i16* %223, i32 %3631
  %3633 = ptrtoint i16* %3632 to i32
  %3634 = zext i32 %3633 to i64
  store i64 %3634, i64* %875, align 8, !tbaa !7
  %3635 = or i32 %3607, 112
  %3636 = getelementptr inbounds i16, i16* %223, i32 %3635
  %3637 = ptrtoint i16* %3636 to i32
  %3638 = zext i32 %3637 to i64
  store i64 %3638, i64* %876, align 8, !tbaa !7
  call void @_Z12intrinsic_2510ub_addr8_tPy(i32 0, i64* nonnull %869)
  call void @llvm.lifetime.start.p0i8(i64 64, i8* nonnull %877) #4
  %3639 = or i32 %3607, 128
  %3640 = getelementptr inbounds i16, i16* %223, i32 %3639
  %3641 = ptrtoint i16* %3640 to i32
  %3642 = zext i32 %3641 to i64
  store i64 %3642, i64* %878, align 8, !tbaa !7
  %3643 = or i32 %3607, 144
  %3644 = getelementptr inbounds i16, i16* %223, i32 %3643
  %3645 = ptrtoint i16* %3644 to i32
  %3646 = zext i32 %3645 to i64
  store i64 %3646, i64* %879, align 8, !tbaa !7
  %3647 = or i32 %3607, 160
  %3648 = getelementptr inbounds i16, i16* %223, i32 %3647
  %3649 = ptrtoint i16* %3648 to i32
  %3650 = zext i32 %3649 to i64
  store i64 %3650, i64* %880, align 8, !tbaa !7
  %3651 = or i32 %3607, 176
  %3652 = getelementptr inbounds i16, i16* %223, i32 %3651
  %3653 = ptrtoint i16* %3652 to i32
  %3654 = zext i32 %3653 to i64
  store i64 %3654, i64* %881, align 8, !tbaa !7
  %3655 = or i32 %3607, 192
  %3656 = getelementptr inbounds i16, i16* %223, i32 %3655
  %3657 = ptrtoint i16* %3656 to i32
  %3658 = zext i32 %3657 to i64
  store i64 %3658, i64* %882, align 8, !tbaa !7
  %3659 = or i32 %3607, 208
  %3660 = getelementptr inbounds i16, i16* %223, i32 %3659
  %3661 = ptrtoint i16* %3660 to i32
  %3662 = zext i32 %3661 to i64
  store i64 %3662, i64* %883, align 8, !tbaa !7
  %3663 = or i32 %3607, 224
  %3664 = getelementptr inbounds i16, i16* %223, i32 %3663
  %3665 = ptrtoint i16* %3664 to i32
  %3666 = zext i32 %3665 to i64
  store i64 %3666, i64* %884, align 8, !tbaa !7
  %3667 = or i32 %3607, 240
  %3668 = getelementptr inbounds i16, i16* %223, i32 %3667
  %3669 = ptrtoint i16* %3668 to i32
  %3670 = zext i32 %3669 to i64
  store i64 %3670, i64* %885, align 8, !tbaa !7
  call void @_Z12intrinsic_2510ub_addr8_tPy(i32 1, i64* nonnull %878)
  call void @llvm.lifetime.start.p0i8(i64 64, i8* nonnull %886) #4
  %3671 = trunc i64 %989 to i32
  %3672 = getelementptr inbounds i16, i16* %220, i32 %3671
  %3673 = ptrtoint i16* %3672 to i32
  %3674 = zext i32 %3673 to i64
  store i64 %3674, i64* %887, align 8, !tbaa !7
  %3675 = add nuw nsw i64 %989, %984
  %3676 = trunc i64 %3675 to i32
  %3677 = getelementptr inbounds i16, i16* %220, i32 %3676
  %3678 = ptrtoint i16* %3677 to i32
  %3679 = zext i32 %3678 to i64
  store i64 %3679, i64* %888, align 8, !tbaa !7
  %3680 = add nuw nsw i64 %989, %3097
  %3681 = trunc i64 %3680 to i32
  %3682 = getelementptr inbounds i16, i16* %220, i32 %3681
  %3683 = ptrtoint i16* %3682 to i32
  %3684 = zext i32 %3683 to i64
  store i64 %3684, i64* %889, align 8, !tbaa !7
  %3685 = add nuw nsw i64 %989, %3098
  %3686 = trunc i64 %3685 to i32
  %3687 = getelementptr inbounds i16, i16* %220, i32 %3686
  %3688 = ptrtoint i16* %3687 to i32
  %3689 = zext i32 %3688 to i64
  store i64 %3689, i64* %890, align 8, !tbaa !7
  %3690 = add nuw nsw i64 %989, %3099
  %3691 = trunc i64 %3690 to i32
  %3692 = getelementptr inbounds i16, i16* %220, i32 %3691
  %3693 = ptrtoint i16* %3692 to i32
  %3694 = zext i32 %3693 to i64
  store i64 %3694, i64* %891, align 8, !tbaa !7
  %3695 = add nuw nsw i64 %989, %3100
  %3696 = trunc i64 %3695 to i32
  %3697 = getelementptr inbounds i16, i16* %220, i32 %3696
  %3698 = ptrtoint i16* %3697 to i32
  %3699 = zext i32 %3698 to i64
  store i64 %3699, i64* %892, align 8, !tbaa !7
  %3700 = add nuw nsw i64 %989, %3101
  %3701 = trunc i64 %3700 to i32
  %3702 = getelementptr inbounds i16, i16* %220, i32 %3701
  %3703 = ptrtoint i16* %3702 to i32
  %3704 = zext i32 %3703 to i64
  store i64 %3704, i64* %893, align 8, !tbaa !7
  %3705 = add nuw nsw i64 %989, %3102
  %3706 = trunc i64 %3705 to i32
  %3707 = getelementptr inbounds i16, i16* %220, i32 %3706
  %3708 = ptrtoint i16* %3707 to i32
  %3709 = zext i32 %3708 to i64
  store i64 %3709, i64* %894, align 8, !tbaa !7
  call void @_Z12intrinsic_2510ub_addr8_tPy(i32 2, i64* nonnull %887)
  call void @llvm.lifetime.start.p0i8(i64 64, i8* nonnull %895) #4
  %3710 = add nuw nsw i64 %989, %3103
  %3711 = trunc i64 %3710 to i32
  %3712 = getelementptr inbounds i16, i16* %220, i32 %3711
  %3713 = ptrtoint i16* %3712 to i32
  %3714 = zext i32 %3713 to i64
  store i64 %3714, i64* %896, align 8, !tbaa !7
